 DBDiff.SciLexer

 Timestamp is 4a3675e3 (Mon Jun 15 13:25:07 2009)

 Preferred load address is 10000000

 Start         Length     Name                   Class
 0001:00000000 00036be2H .text                   CODE
 0001:00036be2 00000b76H .text$x                 CODE
 0001:00037758 0000016dH .text$yc                CODE
 0001:000378c5 00000076H .text$yd                CODE
 0002:00000000 0000033cH .idata$5                DATA
 0002:0000033c 00000004H .CRT$XCA                DATA
 0002:00000340 00000024H .CRT$XCU                DATA
 0002:00000364 00000004H .CRT$XCZ                DATA
 0002:00000368 00000004H .CRT$XIA                DATA
 0002:0000036c 00000014H .CRT$XIC                DATA
 0002:00000380 00000004H .CRT$XIZ                DATA
 0002:00000384 00000004H .CRT$XPA                DATA
 0002:00000388 00000004H .CRT$XPX                DATA
 0002:0000038c 00000004H .CRT$XPXA               DATA
 0002:00000390 00000004H .CRT$XPZ                DATA
 0002:00000394 00000004H .CRT$XTA                DATA
 0002:00000398 00000004H .CRT$XTZ                DATA
 0002:000003a0 00002c98H .rdata                  DATA
 0002:00003038 00000a40H .rdata$r                DATA
 0002:00003a80 00000104H .rdata$sxdata           DATA
 0002:00003b84 00000004H .rtc$IAA                DATA
 0002:00003b88 00000004H .rtc$IZZ                DATA
 0002:00003b8c 00000004H .rtc$TAA                DATA
 0002:00003b90 00000004H .rtc$TZZ                DATA
 0002:00003b98 000011d4H .xdata$x                DATA
 0002:00004d6c 00000064H .idata$2                DATA
 0002:00004dd0 00000014H .idata$3                DATA
 0002:00004de4 0000033cH .idata$4                DATA
 0002:00005120 00000ddcH .idata$6                DATA
 0002:00005f00 00000063H .edata                  DATA
 0003:00000000 00001660H .data                   DATA
 0003:00001660 00001d9cH .bss                    DATA
 0004:00000000 000000e8H .rsrc$01                DATA
 0004:000000f0 00000488H .rsrc$02                DATA

  Address         Publics by Value              Rva+Base       Lib:Object

 0000:00000000       __except_list              00000000     <absolute>
 0000:00000041       ___safe_se_handler_count   00000041     <absolute>
 0000:00000000       ___ImageBase               10000000     <linker-defined>
 0001:00000000       ??0AutoComplete@@QAE@XZ    10001000 f   AutoComplete.obj
 0001:00000061       ??1AutoComplete@@QAE@XZ    10001061 f   AutoComplete.obj
 0001:0000008c       ?Active@AutoComplete@@QAE_NXZ 1000108c f   AutoComplete.obj
 0001:0000008f       ?SetStopChars@AutoComplete@@QAEXPBD@Z 1000108f f   AutoComplete.obj
 0001:000000b2       ?IsStopChar@AutoComplete@@QAE_ND@Z 100010b2 f   AutoComplete.obj
 0001:000000d6       ?SetFillUpChars@AutoComplete@@QAEXPBD@Z 100010d6 f   AutoComplete.obj
 0001:000000fc       ?IsFillUpChar@AutoComplete@@QAE_ND@Z 100010fc f   AutoComplete.obj
 0001:00000125       ?SetSeparator@AutoComplete@@QAEXD@Z 10001125 f   AutoComplete.obj
 0001:00000132       ?GetSeparator@AutoComplete@@QAEDXZ 10001132 f   AutoComplete.obj
 0001:00000139       ?SetTypesep@AutoComplete@@QAEXD@Z 10001139 f   AutoComplete.obj
 0001:00000146       ?GetTypesep@AutoComplete@@QAEDXZ 10001146 f   AutoComplete.obj
 0001:0000014d       ?SetList@AutoComplete@@QAEXPBD@Z 1000114d f   AutoComplete.obj
 0001:00000173       ?Show@AutoComplete@@QAEX_N@Z 10001173 f   AutoComplete.obj
 0001:00000199       ?Cancel@AutoComplete@@QAEXXZ 10001199 f   AutoComplete.obj
 0001:000001bd       ?Move@AutoComplete@@QAEXH@Z 100011bd f   AutoComplete.obj
 0001:000001fb       ?Select@AutoComplete@@QAEXPBD@Z 100011fb f   AutoComplete.obj
 0001:000003a2       ?Start@AutoComplete@@QAEXAAVWindow@@HHVPoint@@HH_N@Z 100013a2 f   AutoComplete.obj
 0001:000003f4       ?Contains@PRectangle@@QAE_NVPoint@@@Z 100013f4 f i CallTip.obj
 0001:00000419       ??_GWindow@@UAEPAXI@Z      10001419 f i CallTip.obj
 0001:00000419       ??_EWindow@@UAEPAXI@Z      10001419 f i CallTip.obj
 0001:00000435       ??1CallTip@@QAE@XZ         10001435 f   CallTip.obj
 0001:00000496       ?RefreshColourPalette@CallTip@@QAEXAAVPalette@@_N@Z 10001496 f   CallTip.obj
 0001:000004fb       ?IsTabCharacter@CallTip@@AAE_ND@Z 100014fb f   CallTip.obj
 0001:0000050d       ?NextTabPos@CallTip@@AAEHH@Z 1000150d f   CallTip.obj
 0001:0000052d       ?DrawChunk@CallTip@@AAEXPAVSurface@@AAHPBDHHHVPRectangle@@_N4@Z 1000152d f   CallTip.obj
 0001:0000076e       ?PaintContents@CallTip@@AAEHPAVSurface@@_N@Z 1000176e f   CallTip.obj
 0001:00000901       ?PaintCT@CallTip@@QAEXPAVSurface@@@Z 10001901 f   CallTip.obj
 0001:000009d1       ?MouseClick@CallTip@@QAEXVPoint@@@Z 100019d1 f   CallTip.obj
 0001:00000a1b       ?CallTipStart@CallTip@@QAE?AVPRectangle@@HVPoint@@PBD1HHHAAVWindow@@@Z 10001a1b f   CallTip.obj
 0001:00000bc0       ?CallTipCancel@CallTip@@QAEXXZ 10001bc0 f   CallTip.obj
 0001:00000bd3       ?SetHighlight@CallTip@@QAEXHH@Z 10001bd3 f   CallTip.obj
 0001:00000bfa       ?SetTabSize@CallTip@@QAEXH@Z 10001bfa f   CallTip.obj
 0001:00000c08       ?SetForeBack@CallTip@@QAEXABUColourPair@@0@Z 10001c08 f   CallTip.obj
 0001:00000c29       ??0CallTip@@QAE@XZ         10001c29 f   CallTip.obj
 0001:00000cf6       ?RangeAddDelta@SplitVectorWithRangeAdd@@QAEXHHH@Z 10001cf6 f i CellBuffer.obj
 0001:00000d4c       ?BackStep@Partitioning@@AAEXH@Z 10001d4c f i CellBuffer.obj
 0001:00000d75       ?SetPerLine@LineVector@@QAEXPAVPerLine@@@Z 10001d75 f   CellBuffer.obj
 0001:00000d7f       ??0Action@@QAE@XZ          10001d7f f   CellBuffer.obj
 0001:00000d93       ?Create@Action@@QAEXW4actionType@@HPADH_N@Z 10001d93 f   CellBuffer.obj
 0001:00000dc4       ?Destroy@Action@@QAEXXZ    10001dc4 f   CellBuffer.obj
 0001:00000dd6       ?Grab@Action@@QAEXPAV1@@Z  10001dd6 f   CellBuffer.obj
 0001:00000e1b       ?DropUndoSequence@UndoHistory@@QAEXXZ 10001e1b f   CellBuffer.obj
 0001:00000e20       ?DeleteUndoHistory@UndoHistory@@QAEXXZ 10001e20 f   CellBuffer.obj
 0001:00000e5f       ?SetSavePoint@UndoHistory@@QAEXXZ 10001e5f f   CellBuffer.obj
 0001:00000e66       ?IsSavePoint@UndoHistory@@QBE_NXZ 10001e66 f   CellBuffer.obj
 0001:00000e72       ?CanUndo@UndoHistory@@QBE_NXZ 10001e72 f   CellBuffer.obj
 0001:00000e80       ?StartUndo@UndoHistory@@QAEHXZ 10001e80 f   CellBuffer.obj
 0001:00000ebb       ?CompletedUndoStep@UndoHistory@@QAEXXZ 10001ebb f   CellBuffer.obj
 0001:00000ebf       ?CanRedo@UndoHistory@@QBE_NXZ 10001ebf f   CellBuffer.obj
 0001:00000ecd       ?StartRedo@UndoHistory@@QAEHXZ 10001ecd f   CellBuffer.obj
 0001:00000f12       ?GetUndoStep@UndoHistory@@QBEABVAction@@XZ 10001f12 f   CellBuffer.obj
 0001:00000f12       ?GetRedoStep@UndoHistory@@QBEABVAction@@XZ 10001f12 f   CellBuffer.obj
 0001:00000f1b       ?CompletedRedoStep@UndoHistory@@QAEXXZ 10001f1b f   CellBuffer.obj
 0001:00000f1f       ?SetPerLine@CellBuffer@@QAEXPAVPerLine@@@Z 10001f1f f   CellBuffer.obj
 0001:00000f27       ?IsReadOnly@CellBuffer@@QAE_NXZ 10001f27 f   CellBuffer.obj
 0001:00000f2b       ?SetReadOnly@CellBuffer@@QAEX_N@Z 10001f2b f   CellBuffer.obj
 0001:00000f35       ?SetSavePoint@CellBuffer@@QAEXXZ 10001f35 f   CellBuffer.obj
 0001:00000f3d       ?IsSavePoint@CellBuffer@@QAE_NXZ 10001f3d f   CellBuffer.obj
 0001:00000f45       ?SetUndoCollection@CellBuffer@@QAE_N_N@Z 10001f45 f   CellBuffer.obj
 0001:00000f5c       ?IsCollectingUndo@CellBuffer@@QAE_NXZ 10001f5c f   CellBuffer.obj
 0001:00000f60       ?DeleteUndoHistory@CellBuffer@@QAEXXZ 10001f60 f   CellBuffer.obj
 0001:00000f68       ?CanUndo@CellBuffer@@QAE_NXZ 10001f68 f   CellBuffer.obj
 0001:00000f70       ?StartUndo@CellBuffer@@QAEHXZ 10001f70 f   CellBuffer.obj
 0001:00000f78       ?CanRedo@CellBuffer@@QAE_NXZ 10001f78 f   CellBuffer.obj
 0001:00000f80       ?StartRedo@CellBuffer@@QAEHXZ 10001f80 f   CellBuffer.obj
 0001:00000f88       ?GetRedoStep@CellBuffer@@QBEABVAction@@XZ 10001f88 f   CellBuffer.obj
 0001:00000f88       ?GetUndoStep@CellBuffer@@QBEABVAction@@XZ 10001f88 f   CellBuffer.obj
 0001:00000f90       ??1?$SplitVector@H@@QAE@XZ 10001f90 f i CellBuffer.obj
 0001:00000f90       ??1?$SplitVector@D@@QAE@XZ 10001f90 f i CellBuffer.obj
 0001:00000f90       ??1?$SplitVector@PAVMarkerHandleSet@@@@QAE@XZ 10001f90 f i Document.obj
 0001:00000f90       ??1?$SplitVector@PAD@@QAE@XZ 10001f90 f i Document.obj
 0001:00000fa0       ?ValueAt@?$SplitVector@H@@QBEHH@Z 10001fa0 f i CellBuffer.obj
 0001:00000fca       ?SetValueAt@?$SplitVector@H@@QAEXHH@Z 10001fca f i CellBuffer.obj
 0001:00000ff8       ?ValueAt@?$SplitVector@D@@QBEDH@Z 10001ff8 f i CellBuffer.obj
 0001:00001020       ?SetValueAt@?$SplitVector@D@@QAEXHD@Z 10002020 f i CellBuffer.obj
 0001:0000104c       ?GapTo@?$SplitVector@D@@IAEXH@Z 1000204c f i CellBuffer.obj
 0001:00001090       ?ApplyStep@Partitioning@@AAEXH@Z 10002090 f i CellBuffer.obj
 0001:000010c8       ?SetPartitionStartPosition@Partitioning@@QAEXHH@Z 100020c8 f i CellBuffer.obj
 0001:000010f4       ?InsertText@Partitioning@@QAEXHH@Z 100020f4 f i CellBuffer.obj
 0001:00001159       ?PositionFromPartition@Partitioning@@QBEHH@Z 10002159 f i CellBuffer.obj
 0001:00001183       ?PartitionFromPosition@Partitioning@@QAEHH@Z 10002183 f i CellBuffer.obj
 0001:000011ec       ?InsertText@LineVector@@QAEXHH@Z 100021ec f   CellBuffer.obj
 0001:000011f1       ?SetLineStart@LineVector@@QAEXHH@Z 100021f1 f   CellBuffer.obj
 0001:000011f6       ?LineFromPosition@LineVector@@QAEHH@Z 100021f6 f   CellBuffer.obj
 0001:000011fb       ??1Action@@QAE@XZ          100021fb f   CellBuffer.obj
 0001:00001200       ??0UndoHistory@@QAE@XZ     10002200 f   CellBuffer.obj
 0001:00001289       ??_EAction@@QAEPAXI@Z      10002289 f i CellBuffer.obj
 0001:000012d2       ??1UndoHistory@@QAE@XZ     100022d2 f   CellBuffer.obj
 0001:000012e7       ?EnsureUndoRoom@UndoHistory@@AAEXXZ 100022e7 f   CellBuffer.obj
 0001:000013a2       ?AppendAction@UndoHistory@@QAEXW4actionType@@HPADHAA_N_N@Z 100023a2 f   CellBuffer.obj
 0001:000014bb       ?BeginUndoAction@UndoHistory@@QAEXXZ 100024bb f   CellBuffer.obj
 0001:00001507       ?EndUndoAction@UndoHistory@@QAEXXZ 10002507 f   CellBuffer.obj
 0001:00001550       ?CharAt@CellBuffer@@QBEDH@Z 10002550 f   CellBuffer.obj
 0001:00001555       ?GetCharRange@CellBuffer@@QAEXPADHH@Z 10002555 f   CellBuffer.obj
 0001:000015af       ?StyleAt@CellBuffer@@QAEDH@Z 100025af f   CellBuffer.obj
 0001:000015b7       ?SetStyleAt@CellBuffer@@QAE_NHDD@Z 100025b7 f   CellBuffer.obj
 0001:000015f9       ?SetStyleFor@CellBuffer@@QAE_NHHDD@Z 100025f9 f   CellBuffer.obj
 0001:0000164b       ?Lines@CellBuffer@@QBEHXZ  1000264b f   CellBuffer.obj
 0001:00001653       ?LineStart@CellBuffer@@QBEHH@Z 10002653 f   CellBuffer.obj
 0001:0000167b       ?BeginUndoAction@CellBuffer@@QAEXXZ 1000267b f   CellBuffer.obj
 0001:00001683       ?EndUndoAction@CellBuffer@@QAEXXZ 10002683 f   CellBuffer.obj
 0001:0000168b       ?AddUndoAction@CellBuffer@@QAEXH_N@Z 1000268b f   CellBuffer.obj
 0001:000016aa       ?ReAllocate@?$SplitVector@D@@QAEXH@Z 100026aa f i CellBuffer.obj
 0001:000016fc       ?DeleteRange@?$SplitVector@D@@QAEXHH@Z 100026fc f i CellBuffer.obj
 0001:00001758       ?RoomFor@?$SplitVector@D@@IAEXH@Z 10002758 f i CellBuffer.obj
 0001:0000178a       ??0SplitVectorWithRangeAdd@@QAE@H@Z 1000278a f i CellBuffer.obj
 0001:000017c4       ??1Partitioning@@QAE@XZ    100027c4 f i CellBuffer.obj
 0001:000017db       ?RemovePartition@Partitioning@@QAEXH@Z 100027db f i CellBuffer.obj
 0001:00001804       ?RemoveLine@LineVector@@QAEXH@Z 10002804 f   CellBuffer.obj
 0001:00001823       ?Allocate@CellBuffer@@QAEXH@Z 10002823 f   CellBuffer.obj
 0001:0000183f       ?RemoveLine@CellBuffer@@QAEXH@Z 1000283f f   CellBuffer.obj
 0001:00001847       ?Insert@?$SplitVector@PAVMarkerHandleSet@@@@QAEXHPAVMarkerHandleSet@@@Z 10002847 f i PerLine.obj
 0001:00001847       ?Insert@?$SplitVector@PAD@@QAEXHPAD@Z 10002847 f i PerLine.obj
 0001:00001847       ?Insert@?$SplitVector@H@@QAEXHH@Z 10002847 f i CellBuffer.obj
 0001:00001881       ?InsertValue@?$SplitVector@D@@QAEXHHD@Z 10002881 f i CellBuffer.obj
 0001:000018cf       ?InsertFromArray@?$SplitVector@D@@QAEXHQBDHH@Z 100028cf f i CellBuffer.obj
 0001:00001920       ?BufferPointer@?$SplitVector@D@@QAEPADXZ 10002920 f i CellBuffer.obj
 0001:00001941       ?Allocate@Partitioning@@AAEXH@Z 10002941 f i CellBuffer.obj
 0001:00001999       ?InsertPartition@Partitioning@@QAEXHH@Z 10002999 f i CellBuffer.obj
 0001:000019bf       ?DeleteAll@Partitioning@@QAEXXZ 100029bf f i CellBuffer.obj
 0001:000019df       ??1LineVector@@QAE@XZ      100029df f   CellBuffer.obj
 0001:00001a09       ?Init@LineVector@@QAEXXZ   10002a09 f   CellBuffer.obj
 0001:00001a0e       ?InsertLine@LineVector@@QAEXHH@Z 10002a0e f   CellBuffer.obj
 0001:00001a34       ??1CellBuffer@@QAE@XZ      10002a34 f   CellBuffer.obj
 0001:00001a86       ?BufferPointer@CellBuffer@@QAEPBDXZ 10002a86 f   CellBuffer.obj
 0001:00001a8b       ?InsertLine@CellBuffer@@QAEXHH@Z 10002a8b f   CellBuffer.obj
 0001:00001a93       ?BasicInsertString@CellBuffer@@QAEXHPBDH@Z 10002a93 f   CellBuffer.obj
 0001:00001b88       ?BasicDeleteChars@CellBuffer@@QAEXHH@Z 10002b88 f   CellBuffer.obj
 0001:00001cac       ?PerformUndoStep@CellBuffer@@QAEXXZ 10002cac f   CellBuffer.obj
 0001:00001ceb       ?PerformRedoStep@CellBuffer@@QAEXXZ 10002ceb f   CellBuffer.obj
 0001:00001d2a       ??0LineVector@@QAE@XZ      10002d2a f   CellBuffer.obj
 0001:00001d58       ??0CellBuffer@@QAE@XZ      10002d58 f   CellBuffer.obj
 0001:00001dbb       ?InsertString@CellBuffer@@QAEPBDHPBDHAA_N@Z 10002dbb f   CellBuffer.obj
 0001:00001e1d       ?DeleteChars@CellBuffer@@QAEPBDHHAA_N@Z 10002e1d f   CellBuffer.obj
 0001:00001e96       ?SetDefaultCharClasses@CharClassify@@QAEX_N@Z 10002e96 f   CharClassify.obj
 0001:00001ef0       ?SetCharClasses@CharClassify@@QAEXPBEW4cc@1@@Z 10002ef0 f   CharClassify.obj
 0001:00001f14       ??0CharClassify@@QAE@XZ    10002f14 f   CharClassify.obj
 0001:00001f22       ??0ContractionState@@QAE@XZ 10002f22 f   ContractionState.obj
 0001:00001f40       ?GetVisible@ContractionState@@QBE_NH@Z 10002f40 f   ContractionState.obj
 0001:00001f6f       ?GetHeight@ContractionState@@QBEHH@Z 10002f6f f   ContractionState.obj
 0001:00001f83       ?LinesInDoc@ContractionState@@QBEHXZ 10002f83 f   ContractionState.obj
 0001:00001f99       ?LinesDisplayed@ContractionState@@QBEHXZ 10002f99 f   ContractionState.obj
 0001:00001fb2       ?DisplayFromDoc@ContractionState@@QBEHH@Z 10002fb2 f   ContractionState.obj
 0001:00001fd8       ?DocFromDisplay@ContractionState@@QBEHH@Z 10002fd8 f   ContractionState.obj
 0001:00002017       ?GetExpanded@ContractionState@@QBE_NH@Z 10003017 f   ContractionState.obj
 0001:00002036       ?DeleteLine@ContractionState@@QAEXH@Z 10003036 f   ContractionState.obj
 0001:00002097       ?DeleteLines@ContractionState@@QAEXHH@Z 10003097 f   ContractionState.obj
 0001:000020b6       ?Clear@ContractionState@@QAEXXZ 100030b6 f   ContractionState.obj
 0001:00002128       ?InsertLine@ContractionState@@QAEXH@Z 10003128 f   ContractionState.obj
 0001:0000219b       ?InsertLines@ContractionState@@QAEXHH@Z 1000319b f   ContractionState.obj
 0001:000021c1       ?ShowAll@ContractionState@@QAEXXZ 100031c1 f   ContractionState.obj
 0001:000021d7       ??1ContractionState@@UAE@XZ 100031d7 f   ContractionState.obj
 0001:000021e2       ?EnsureData@ContractionState@@AAEXXZ 100031e2 f   ContractionState.obj
 0001:000022af       ?SetVisible@ContractionState@@QAE_NHH_N@Z 100032af f   ContractionState.obj
 0001:00002341       ?SetExpanded@ContractionState@@QAE_NH_N@Z 10003341 f   ContractionState.obj
 0001:00002390       ?SetHeight@ContractionState@@QAE_NHH@Z 10003390 f   ContractionState.obj
 0001:000023f5       ??_GContractionState@@UAEPAXI@Z 100033f5 f i ContractionState.obj
 0001:000023f5       ??_EContractionState@@UAEPAXI@Z 100033f5 f i ContractionState.obj
 0001:00002411       ??0Decoration@@QAE@H@Z     10003411 f   Decoration.obj
 0001:0000242c       ??1Decoration@@QAE@XZ      1000342c f   Decoration.obj
 0001:00002434       ??0DecorationList@@QAE@XZ  10003434 f   Decoration.obj
 0001:0000244e       ?DecorationFromIndicator@DecorationList@@AAEPAVDecoration@@H@Z 1000344e f   Decoration.obj
 0001:00002465       ?Create@DecorationList@@AAEPAVDecoration@@HH@Z 10003465 f   Decoration.obj
 0001:000024d8       ?Delete@DecorationList@@AAEXH@Z 100034d8 f   Decoration.obj
 0001:00002534       ?SetCurrentIndicator@DecorationList@@QAEXH@Z 10003534 f   Decoration.obj
 0001:0000254f       ?SetCurrentValue@DecorationList@@QAEXH@Z 1000354f f   Decoration.obj
 0001:0000255e       ?InsertSpace@DecorationList@@QAEXHH@Z 1000355e f   Decoration.obj
 0001:00002584       ?AllOnFor@DecorationList@@QAEHH@Z 10003584 f   Decoration.obj
 0001:000025b4       ?ValueAt@DecorationList@@QAEHHH@Z 100035b4 f   Decoration.obj
 0001:000025d4       ?Start@DecorationList@@QAEHHH@Z 100035d4 f   Decoration.obj
 0001:000025f4       ?End@DecorationList@@QAEHHH@Z 100035f4 f   Decoration.obj
 0001:00002614       ?Empty@Decoration@@QAE_NXZ 10003614 f   Decoration.obj
 0001:00002625       ??1DecorationList@@QAE@XZ  10003625 f   Decoration.obj
 0001:00002653       ?FillRange@DecorationList@@QAE_NAAHH0@Z 10003653 f   Decoration.obj
 0001:000026af       ?DeleteAnyEmpty@DecorationList@@AAEXXZ 100036af f   Decoration.obj
 0001:000026d4       ?DeleteRange@DecorationList@@QAEXHH@Z 100036d4 f   Decoration.obj
 0001:00002705       ??1PerLine@@UAE@XZ         10003705 f i Document.obj
 0001:0000270c       ??_GPerLine@@UAEPAXI@Z     1000370c f i Document.obj
 0001:0000270c       ??_EPerLine@@UAEPAXI@Z     1000370c f i Document.obj
 0001:00002729       ??1RegexSearchBase@@UAE@XZ 10003729 f i Document.obj
 0001:00002730       ??_GRegexSearchBase@@UAEPAXI@Z 10003730 f i Document.obj
 0001:00002730       ??_ERegexSearchBase@@UAEPAXI@Z 10003730 f i Document.obj
 0001:0000274d       ??0DocModification@@QAE@HHHHPBDH@Z 1000374d f i Document.obj
 0001:00002787       ??0DocModification@@QAE@HABVAction@@H@Z 10003787 f i Document.obj
 0001:00002838       ??1Document@@UAE@XZ        10003838 f   Document.obj
 0001:000028f4       ?InsertLine@Document@@UAEXH@Z 100038f4 f   Document.obj
 0001:0000291a       ?RemoveLine@Document@@UAEXH@Z 1000391a f   Document.obj
 0001:00002940       ?AddRef@Document@@QAEHXZ   10003940 f   Document.obj
 0001:0000294a       ?Release@Document@@QAEHXZ  1000394a f   Document.obj
 0001:0000295d       ?GetMark@Document@@QAEHH@Z 1000395d f   Document.obj
 0001:00002968       ?LineFromHandle@Document@@QAEHH@Z 10003968 f   Document.obj
 0001:00002973       ?LineStart@Document@@QBEHH@Z 10003973 f   Document.obj
 0001:0000297b       ?LineFromPosition@Document@@QAEHH@Z 1000397b f   Document.obj
 0001:00002983       ?GetLevel@Document@@QAEHH@Z 10003983 f   Document.obj
 0001:0000298e       ?ClearLevels@Document@@QAEXXZ 1000398e f   Document.obj
 0001:000029b5       ?GetFoldParent@Document@@QAEHH@Z 100039b5 f   Document.obj
 0001:00002a1d       ?ClampPositionIntoDocument@Document@@QAEHH@Z 10003a1d f   Document.obj
 0001:00002a37       ?IsCrLf@Document@@QAE_NH@Z 10003a37 f   Document.obj
 0001:00002a7d       ?LenChar@Document@@QAEHH@Z 10003a7d f   Document.obj
 0001:00002b80       ?InGoodUTF8@Document@@QAE_NHAAH0@Z 10003b80 f   Document.obj
 0001:00002c42       ?MovePositionOutsideChar@Document@@QAEHHH_N@Z 10003c42 f   Document.obj
 0001:00002d95       ?ModifiedAt@Document@@QAEXH@Z 10003d95 f   Document.obj
 0001:00002dfa       ?GetLineIndentPosition@Document@@QBEHH@Z 10003dfa f   Document.obj
 0001:00002e48       ?TransformLineEnds@Document@@SAPADPAHPBDIH@Z 10003e48 f   Document.obj
 0001:00002ed3       ?WordCharClass@Document@@AAE?AW4cc@CharClassify@@E@Z 10003ed3 f   Document.obj
 0001:00002ef8       ?ExtendWordSelect@Document@@QAEHHH_N@Z 10003ef8 f   Document.obj
 0001:00002fbe       ?NextWordStart@Document@@QAEHHH@Z 10003fbe f   Document.obj
 0001:000030ab       ?NextWordEnd@Document@@QAEHHH@Z 100040ab f   Document.obj
 0001:000031af       ?IsWordStartAt@Document@@AAE_NH@Z 100041af f   Document.obj
 0001:00003211       ?IsWordEndAt@Document@@AAE_NH@Z 10004211 f   Document.obj
 0001:0000327c       ?IsWordAt@Document@@AAE_NHH@Z 1000427c f   Document.obj
 0001:000032a6       ?SubstituteByPosition@Document@@QAEPBDPBDPAH@Z 100042a6 f   Document.obj
 0001:000032bf       ?LinesTotal@Document@@QBEHXZ 100042bf f   Document.obj
 0001:000032c7       ?SetDefaultCharClasses@Document@@QAEX_N@Z 100042c7 f   Document.obj
 0001:000032cf       ?SetCharClasses@Document@@QAEXPBEW4cc@CharClassify@@@Z 100042cf f   Document.obj
 0001:000032d7       ?SetStylingBits@Document@@QAEXH@Z 100042d7 f   Document.obj
 0001:000032f2       ?StartStyling@Document@@QAEXHD@Z 100042f2 f   Document.obj
 0001:00003309       ?GetLineState@Document@@QAEHH@Z 10004309 f   Document.obj
 0001:00003314       ?GetMaxLineState@Document@@QAEHXZ 10004314 f   Document.obj
 0001:0000331f       ?MarginStyledText@Document@@QAE?AUStyledText@@H@Z 1000431f f   Document.obj
 0001:00003386       ?MarginSetStyle@Document@@QAEXHH@Z 10004386 f   Document.obj
 0001:00003391       ?MarginSetStyles@Document@@QAEXHPBE@Z 10004391 f   Document.obj
 0001:0000339c       ?AnnotationStyledText@Document@@QAE?AUStyledText@@H@Z 1000439c f   Document.obj
 0001:00003403       ?AnnotationSetStyle@Document@@QAEXHH@Z 10004403 f   Document.obj
 0001:0000340e       ?AnnotationSetStyles@Document@@QAEXHPBE@Z 1000440e f   Document.obj
 0001:00003419       ?AnnotationLines@Document@@QBEHH@Z 10004419 f   Document.obj
 0001:00003424       ?IncrementStyleClock@Document@@QAEXXZ 10004424 f   Document.obj
 0001:00003440       ?RemoveWatcher@Document@@QAE_NPAVDocWatcher@@PAX@Z 10004440 f   Document.obj
 0001:00003536       ?NotifyModifyAttempt@Document@@AAEXXZ 10004536 f   Document.obj
 0001:00003564       ?NotifySavePoint@Document@@AAEX_N@Z 10004564 f   Document.obj
 0001:00003598       ?NotifyModified@Document@@AAEXVDocModification@@@Z 10004598 f   Document.obj
 0001:00003619       ?IsWordPartSeparator@Document@@QAE_ND@Z 10004619 f   Document.obj
 0001:0000363f       ?WordPartLeft@Document@@QAEHH@Z 1000463f f   Document.obj
 0001:00003851       ?WordPartRight@Document@@QAEHH@Z 10004851 f   Document.obj
 0001:00003a24       ?IsLineEndChar@@YA_ND@Z    10004a24 f   Document.obj
 0001:00003a39       ?ExtendStyleRange@Document@@QAEHHH_N@Z 10004a39 f   Document.obj
 0001:00003b13       ?BraceMatch@Document@@QAEHHH@Z 10004b13 f   Document.obj
 0001:00003be6       ??1DocumentIndexer@@UAE@XZ 10004be6 f i Document.obj
 0001:00003bed       ??_GDocument@@UAEPAXI@Z    10004bed f i Document.obj
 0001:00003bed       ??_EDocument@@UAEPAXI@Z    10004bed f i Document.obj
 0001:00003c09       ?SetSavePoint@Document@@QAEXXZ 10004c09 f   Document.obj
 0001:00003c1f       ?AddMark@Document@@QAEHHH@Z 10004c1f f   Document.obj
 0001:00003c8e       ?AddMarkSet@Document@@QAEXHH@Z 10004c8e f   Document.obj
 0001:00003d03       ?DeleteMark@Document@@QAEXHH@Z 10004d03 f   Document.obj
 0001:00003d5b       ?DeleteMarkFromHandle@Document@@QAEXH@Z 10004d5b f   Document.obj
 0001:00003db4       ?DeleteAllMarks@Document@@QAEXH@Z 10004db4 f   Document.obj
 0001:00003e27       ?LineEnd@Document@@QBEHH@Z 10004e27 f   Document.obj
 0001:00003e77       ?LineEndPosition@Document@@QAEHH@Z 10004e77 f   Document.obj
 0001:00003e8f       ?VCHomePosition@Document@@QAEHH@Z 10004e8f f   Document.obj
 0001:00003eee       ?SetLevel@Document@@QAEHHH@Z 10004eee f   Document.obj
 0001:00003f5e       ?CheckReadOnly@Document@@QAEXXZ 10004f5e f   Document.obj
 0001:00003f8b       ?DeleteChars@Document@@QAE_NHH@Z 10004f8b f   Document.obj
 0001:000040cf       ?InsertString@Document@@QAE_NHPBDH@Z 100050cf f   Document.obj
 0001:000041ee       ?Undo@Document@@QAEHXZ     100051ee f   Document.obj
 0001:0000439e       ?Redo@Document@@QAEHXZ     1000539e f   Document.obj
 0001:00004552       ?InsertChar@Document@@QAE_NHD@Z 10005552 f   Document.obj
 0001:0000456d       ?InsertCString@Document@@QAE_NHPBD@Z 1000556d f   Document.obj
 0001:0000458e       ?ChangeChar@Document@@QAEXHD@Z 1000558e f   Document.obj
 0001:000045af       ?DelChar@Document@@QAEXH@Z 100055af f   Document.obj
 0001:000045cb       ?DelCharBack@Document@@QAEXH@Z 100055cb f   Document.obj
 0001:00004619       ?GetLineIndentation@Document@@QAEHH@Z 10005619 f   Document.obj
 0001:0000468c       ?SetLineIndentation@Document@@QAEXHH@Z 1000568c f   Document.obj
 0001:00004745       ?GetColumn@Document@@QAEHH@Z 10005745 f   Document.obj
 0001:000047c4       ?FindColumn@Document@@QAEHHH@Z 100057c4 f   Document.obj
 0001:00004842       ?Indent@Document@@QAEX_NHH@Z 10005842 f   Document.obj
 0001:000048b0       ?ConvertLineEnds@Document@@QAEXH@Z 100058b0 f   Document.obj
 0001:0000498d       ?IsWhiteLine@Document@@QBE_NH@Z 1000598d f   Document.obj
 0001:000049da       ?ParaUp@Document@@QAEHH@Z  100059da f   Document.obj
 0001:00004a1c       ?ParaDown@Document@@QAEHH@Z 10005a1c f   Document.obj
 0001:00004a80       ?ChangeCase@Document@@QAEXVRange@@_N@Z 10005a80 f   Document.obj
 0001:00004b0b       ?SetStyleFor@Document@@QAE_NHD@Z 10005b0b f   Document.obj
 0001:00004b8f       ?SetStyles@Document@@QAE_NHPBD@Z 10005b8f f   Document.obj
 0001:00004c4a       ?EnsureStyledTo@Document@@QAEXH@Z 10005c4a f   Document.obj
 0001:00004c98       ?SetLineState@Document@@QAEHHH@Z 10005c98 f   Document.obj
 0001:00004cff       ?MarginSetText@Document@@QAEXHPBD@Z 10005cff f   Document.obj
 0001:00004d56       ?MarginClearAll@Document@@QAEXXZ 10005d56 f   Document.obj
 0001:00004d85       ?AnnotationSetText@Document@@QAEXHPBD@Z 10005d85 f   Document.obj
 0001:00004df2       ?AnnotationClearAll@Document@@QAEXXZ 10005df2 f   Document.obj
 0001:00004e21       ?DecorationFillRange@Document@@QAEXHHH@Z 10005e21 f   Document.obj
 0001:00004e79       ?AddWatcher@Document@@QAE_NPAVDocWatcher@@PAX@Z 10005e79 f   Document.obj
 0001:00004f50       ??0BuiltinRegex@@QAE@PAVCharClassify@@@Z 10005f50 f i Document.obj
 0001:00004f87       ??1BuiltinRegex@@UAE@XZ    10005f87 f i Document.obj
 0001:00004fc9       ??_EBuiltinRegex@@UAEPAXI@Z 10005fc9 f i Document.obj
 0001:00004fc9       ??_GBuiltinRegex@@UAEPAXI@Z 10005fc9 f i Document.obj
 0001:00004fe5       ?CharAt@DocumentIndexer@@UAEDH@Z 10005fe5 f i Document.obj
 0001:00005005       ??_EDocumentIndexer@@UAEPAXI@Z 10006005 f i Document.obj
 0001:00005005       ??_ECharacterIndexer@@UAEPAXI@Z 10006005 f i Document.obj
 0001:00005005       ??_GCharacterIndexer@@UAEPAXI@Z 10006005 f i Document.obj
 0001:00005005       ??_GDocumentIndexer@@UAEPAXI@Z 10006005 f i Document.obj
 0001:00005022       ?FindText@BuiltinRegex@@UAEJPAVDocument@@HHPBD_N22HPAH@Z 10006022 f   Document.obj
 0001:00005240       ?SubstituteByPosition@BuiltinRegex@@UAEPBDPAVDocument@@PBDPAH@Z 10006240 f   Document.obj
 0001:000053d9       ?CreateRegexSearch@@YAPAVRegexSearchBase@@PAVCharClassify@@@Z 100063d9 f   Document.obj
 0001:0000540c       ??0LineMarkers@@QAE@XZ     1000640c f i Document.obj
 0001:00005430       ??_GLineMarkers@@UAEPAXI@Z 10006430 f i Document.obj
 0001:00005430       ??_ELineMarkers@@UAEPAXI@Z 10006430 f i Document.obj
 0001:0000544c       ??0LineState@@QAE@XZ       1000644c f i Document.obj
 0001:0000546d       ??_GLineState@@UAEPAXI@Z   1000646d f i Document.obj
 0001:0000546d       ??_ELineState@@UAEPAXI@Z   1000646d f i Document.obj
 0001:00005489       ??0LineAnnotation@@QAE@XZ  10006489 f i Document.obj
 0001:000054aa       ??_GLineAnnotation@@UAEPAXI@Z 100064aa f i Document.obj
 0001:000054aa       ??_ELineAnnotation@@UAEPAXI@Z 100064aa f i Document.obj
 0001:000054c6       ??0LineLevels@@QAE@XZ      100064c6 f i Document.obj
 0001:000054e7       ??_GLineLevels@@UAEPAXI@Z  100064e7 f i Document.obj
 0001:000054e7       ??_ELineLevels@@UAEPAXI@Z  100064e7 f i Document.obj
 0001:00005503       ?GetLastChild@Document@@QAEHHH@Z 10006503 f   Document.obj
 0001:0000559e       ?FindText@Document@@QAEJHHPBD_N111HPAH@Z 1000659e f   Document.obj
 0001:0000582e       ??0Document@@QAE@XZ        1000682e f   Document.obj
 0001:00005997       ??AAccessor@@QAEDH@Z       10006997 f i DocumentAccessor.obj
 0001:000059c4       ?SafeGetCharAt@Accessor@@QAEDHD@Z 100069c4 f i DocumentAccessor.obj
 0001:00005a07       ??_EAccessor@@UAEPAXI@Z    10006a07 f i DocumentAccessor.obj
 0001:00005a07       ??_GAccessor@@UAEPAXI@Z    10006a07 f i DocumentAccessor.obj
 0001:00005a24       ??1DocumentAccessor@@UAE@XZ 10006a24 f   DocumentAccessor.obj
 0001:00005a2b       ?InternalIsLeadByte@DocumentAccessor@@MAE_ND@Z 10006a2b f   DocumentAccessor.obj
 0001:00005a4b       ?Fill@DocumentAccessor@@MAEXH@Z 10006a4b f   DocumentAccessor.obj
 0001:00005af4       ?Match@DocumentAccessor@@UAE_NHPBD@Z 10006af4 f   DocumentAccessor.obj
 0001:00005b27       ?StyleAt@DocumentAccessor@@UAEDH@Z 10006b27 f   DocumentAccessor.obj
 0001:00005b4b       ?GetLine@DocumentAccessor@@UAEHH@Z 10006b4b f   DocumentAccessor.obj
 0001:00005b56       ?LineStart@DocumentAccessor@@UAEHH@Z 10006b56 f   DocumentAccessor.obj
 0001:00005b61       ?LevelAt@DocumentAccessor@@UAEHH@Z 10006b61 f   DocumentAccessor.obj
 0001:00005b6c       ?Length@DocumentAccessor@@UAEHXZ 10006b6c f   DocumentAccessor.obj
 0001:00005b8c       ?GetLineState@DocumentAccessor@@UAEHH@Z 10006b8c f   DocumentAccessor.obj
 0001:00005b97       ?SetLineState@DocumentAccessor@@UAEHHH@Z 10006b97 f   DocumentAccessor.obj
 0001:00005ba2       ?StartAt@DocumentAccessor@@UAEXID@Z 10006ba2 f   DocumentAccessor.obj
 0001:00005bd0       ?StartSegment@DocumentAccessor@@UAEXI@Z 10006bd0 f   DocumentAccessor.obj
 0001:00005bdd       ?ColourTo@DocumentAccessor@@UAEXIH@Z 10006bdd f   DocumentAccessor.obj
 0001:00005c93       ?SetLevel@DocumentAccessor@@UAEXHH@Z 10006c93 f   DocumentAccessor.obj
 0001:00005c9e       ?Flush@DocumentAccessor@@UAEXXZ 10006c9e f   DocumentAccessor.obj
 0001:00005ce4       ?IndentAmount@DocumentAccessor@@UAEHHPAHP6A_NAAVAccessor@@HH@Z@Z 10006ce4 f   DocumentAccessor.obj
 0001:00005dfe       ?IndicatorFill@DocumentAccessor@@UAEXHHHH@Z 10006dfe f   DocumentAccessor.obj
 0001:00005e35       ?Contains@PRectangle@@QAE_NV1@@Z 10006e35 f i Editor.obj
 0001:00005e62       ?Intersects@PRectangle@@QAE_NV1@@Z 10006e62 f i Editor.obj
 0001:00005e8f       ?Empty@PRectangle@@QAE_NXZ 10006e8f f i Editor.obj
 0001:00005ea9       ?LineLength@StyledText@@QBEII@Z 10006ea9 f i Editor.obj
 0001:00005eca       ?StyleAt@StyledText@@QBEII@Z 10006eca f i Editor.obj
 0001:00005ee3       ??1DocWatcher@@UAE@XZ      10006ee3 f i Editor.obj
 0001:00005eea       ??_GDocWatcher@@UAEPAXI@Z  10006eea f i Editor.obj
 0001:00005eea       ??_EDocWatcher@@UAEPAXI@Z  10006eea f i Editor.obj
 0001:00005f1c       ?IsSpaceOrTab@@YA_NH@Z     10006f1c f i Editor.obj
 0001:00005f31       ?Set@SelectionText@@QAEXPADHHH_N1@Z 10006f31 f i Editor.obj
 0001:00005f6b       ?Copy@SelectionText@@QAEXPBDHHH_N1@Z 10006f6b f i Editor.obj
 0001:00005fc7       ??1AutoSurface@@QAE@XZ     10006fc7 f i Editor.obj
 0001:0000601a       ??0Caret@@QAE@XZ           1000701a f   Editor.obj
 0001:0000602b       ??0Timer@@QAE@XZ           1000702b f   Editor.obj
 0001:00006038       ??0Idler@@QAE@XZ           10007038 f   Editor.obj
 0001:00006042       ?Finalise@Editor@@MAEXXZ   10007042 f   Editor.obj
 0001:00006057       ?DropGraphics@Editor@@IAEXXZ 10007057 f   Editor.obj
 0001:00006092       ?RefreshColourPalette@Editor@@MAEXAAVPalette@@_N@Z 10007092 f   Editor.obj
 0001:0000609a       ?GetClientRectangle@Editor@@MAE?AVPRectangle@@XZ 1000709a f   Editor.obj
 0001:000060ad       ?GetTextRectangle@Editor@@IAE?AVPRectangle@@XZ 100070ad f   Editor.obj
 0001:000060d3       ?LinesOnScreen@Editor@@IAEHXZ 100070d3 f   Editor.obj
 0001:000060f7       ?LinesToScroll@Editor@@IAEHXZ 100070f7 f   Editor.obj
 0001:00006106       ?MaxScrollPos@Editor@@IAEHXZ 10007106 f   Editor.obj
 0001:00006139       ?ControlCharacterString@@YAPBDE@Z 10007139 f   Editor.obj
 0001:00006239       ??1AutoLineLayout@@QAE@XZ  10007239 f i Editor.obj
 0001:0000624c       ?Set@AutoLineLayout@@QAEXPAVLineLayout@@@Z 1000724c f i Editor.obj
 0001:00006264       ?LineFromLocation@Editor@@IAEHVPoint@@@Z 10007264 f   Editor.obj
 0001:00006284       ?SetTopLine@Editor@@IAEXH@Z 10007284 f   Editor.obj
 0001:000062b3       ?AbandonPaint@Editor@@IAE_NXZ 100072b3 f   Editor.obj
 0001:000062d6       ?RedrawRect@Editor@@IAEXVPRectangle@@@Z 100072d6 f   Editor.obj
 0001:00006343       ?Redraw@Editor@@IAEXXZ     10007343 f   Editor.obj
 0001:00006372       ?RectangleFromRange@Editor@@IAE?AVPRectangle@@HH@Z 10007372 f   Editor.obj
 0001:00006455       ?InvalidateRange@Editor@@IAEXHH@Z 10007455 f   Editor.obj
 0001:00006488       ?CurrentPosition@Editor@@IAEHXZ 10007488 f   Editor.obj
 0001:0000648f       ?SelectionEmpty@Editor@@IAE_NXZ 1000748f f   Editor.obj
 0001:000064a1       ?SelectionStart@Editor@@IAEHXZ 100074a1 f   Editor.obj
 0001:000064b5       ?SelectionEnd@Editor@@IAEHXZ 100074b5 f   Editor.obj
 0001:000064c9       ?InvalidateSelection@Editor@@IAEXHH_N@Z 100074c9 f   Editor.obj
 0001:0000653a       ?RangeContainsProtected@Editor@@IBE_NHH@Z 1000753a f   Editor.obj
 0001:000065aa       ?MovePositionOutsideChar@Editor@@IAEHHH_N@Z 100075aa f   Editor.obj
 0001:000066b6       ?MovePositionSoVisible@Editor@@IAEHHH@Z 100076b6 f   Editor.obj
 0001:0000675f       ?ScrollText@Editor@@MAEXH@Z 1000775f f   Editor.obj
 0001:00006767       ?HorizontalScrollTo@Editor@@IAEXH@Z 10007767 f   Editor.obj
 0001:000067bb       ?InvalidateCaret@Editor@@IAEXXZ 100077bb f   Editor.obj
 0001:000067e7       ?NeedWrapping@Editor@@IAEXHH@Z 100077e7 f   Editor.obj
 0001:00006874       ?LinesJoin@Editor@@IAEXXZ  10007874 f   Editor.obj
 0001:00006930       ?StringFromEOLMode@Editor@@KAPBDH@Z 10007930 f   Editor.obj
 0001:0000694f       ?SubstituteMarkerIfEmpty@Editor@@IAEHHH@Z 1000794f f   Editor.obj
 0001:0000696b       ?ValidStyledText@@YA_NAAVViewStyle@@IABUStyledText@@@Z 1000796b f   Editor.obj
 0001:00006a9e       ?DrawStyledText@@YAXPAVSurface@@AAVViewStyle@@HVPRectangle@@HABUStyledText@@II@Z 10007a9e f   Editor.obj
 0001:00006bd3       ?PaintSelMargin@Editor@@IAEXPAVSurface@@AAVPRectangle@@@Z 10007bd3 f   Editor.obj
 0001:000071bd       ?DrawTabArrow@@YAXPAVSurface@@VPRectangle@@H@Z 100081bd f   Editor.obj
 0001:00007247       ?RetrieveLineLayout@Editor@@IAEPAVLineLayout@@H@Z 10008247 f   Editor.obj
 0001:000072cf       ?BadUTF@@YA_NPBDHAAH@Z     100082cf f   Editor.obj
 0001:00007383       ?SelectionBackground@Editor@@IAE?AVColourAllocated@@AAVViewStyle@@@Z 10008383 f   Editor.obj
 0001:000073a7       ?TextBackground@Editor@@IAE?AVColourAllocated@@AAVViewStyle@@_NV2@11HHPAVLineLayout@@@Z 100083a7 f   Editor.obj
 0001:00007449       ?DrawIndentGuide@Editor@@IAEXPAVSurface@@HHHVPRectangle@@_N@Z 10008449 f   Editor.obj
 0001:0000752e       ?DrawIndicators@Editor@@IAEXPAVSurface@@AAVViewStyle@@HHVPRectangle@@PAVLineLayout@@HH_N@Z 1000852e f   Editor.obj
 0001:0000774a       ?DrawTextBlob@@YAXPAVSurface@@AAVViewStyle@@VPRectangle@@PBDVColourAllocated@@4_N@Z 1000874a f   Editor.obj
 0001:0000783e       ?DrawAnnotation@Editor@@IAEXPAVSurface@@AAVViewStyle@@HHVPRectangle@@PAVLineLayout@@H@Z 1000883e f   Editor.obj
 0001:00007a9f       ?DrawBlockCaret@Editor@@IAEXPAVSurface@@AAVViewStyle@@PAVLineLayout@@HHHHVPRectangle@@@Z 10008a9f f   Editor.obj
 0001:00007c0b       ?AddChar@Editor@@IAEXD@Z   10008c0b f   Editor.obj
 0001:00007c29       ?ClearDocumentStyle@Editor@@IAEXXZ 10008c29 f   Editor.obj
 0001:00007cc0       ?NotifyFocus@Editor@@MAEX_N@Z 10008cc0 f   Editor.obj
 0001:00007cc3       ?NotifyStyleToNeeded@Editor@@MAEXH@Z 10008cc3 f   Editor.obj
 0001:00007d07       ?NotifyStyleNeeded@Editor@@MAEXPAVDocument@@PAXH@Z 10008d07 f   Editor.obj
 0001:00007d13       ?NotifySavePoint@Editor@@IAEX_N@Z 10008d13 f   Editor.obj
 0001:00007d5a       ?NotifyModifyAttempt@Editor@@IAEXXZ 10008d5a f   Editor.obj
 0001:00007d96       ?NotifyHotSpotDoubleClicked@Editor@@IAEXH_N00@Z 10008d96 f   Editor.obj
 0001:00007dff       ?NotifyHotSpotClicked@Editor@@IAEXH_N00@Z 10008dff f   Editor.obj
 0001:00007e68       ?NotifyUpdateUI@Editor@@IAEXXZ 10008e68 f   Editor.obj
 0001:00007ea4       ?NotifyPainted@Editor@@IAEXXZ 10008ea4 f   Editor.obj
 0001:00007ee0       ?NotifyIndicatorClick@Editor@@IAEX_NH000@Z 10008ee0 f   Editor.obj
 0001:00007f8c       ?NotifyMarginClick@Editor@@IAE_NVPoint@@_N11@Z 10008f8c f   Editor.obj
 0001:00008056       ?NotifyNeedShown@Editor@@IAEXHH@Z 10009056 f   Editor.obj
 0001:000080a0       ?NotifyZoom@Editor@@IAEXXZ 100090a0 f   Editor.obj
 0001:000080dc       ?NotifyModifyAttempt@Editor@@MAEXPAVDocument@@PAX@Z 100090dc f   Editor.obj
 0001:000080e4       ?NotifyMove@Editor@@IAEXH@Z 100090e4 f   Editor.obj
 0001:00008128       ?NotifySavePoint@Editor@@MAEXPAVDocument@@PAX_N@Z 10009128 f   Editor.obj
 0001:00008134       ?NotifyDeleted@Editor@@MAEXPAVDocument@@PAX@Z 10009134 f   Editor.obj
 0001:00008137       ?NotifyMacroRecord@Editor@@IAEXIKJ@Z 10009137 f   Editor.obj
 0001:000082e8       ?CancelModes@Editor@@MAEXXZ 100092e8 f   Editor.obj
 0001:000082f0       ?KeyDefault@Editor@@MAEHHH@Z 100092f0 f   Editor.obj
 0001:000082f5       ?FindText@Editor@@IAEJKJ@Z 100092f5 f   Editor.obj
 0001:00008367       ?SearchAnchor@Editor@@IAEXXZ 10009367 f   Editor.obj
 0001:00008377       ?SearchInTarget@Editor@@IAEJPBDH@Z 10009377 f   Editor.obj
 0001:0000841b       ?CopyRange@Editor@@IAEPADHH@Z 1000941b f   Editor.obj
 0001:00008483       ?CopySelectionFromRange@Editor@@IAEXPAVSelectionText@@_NHH@Z 10009483 f   Editor.obj
 0001:000085be       ?SetDragPosition@Editor@@IAEXH@Z 100095be f   Editor.obj
 0001:00008610       ?DisplayCursor@Editor@@MAEXW4Cursor@Window@@@Z 10009610 f   Editor.obj
 0001:0000862c       ?DragThreshold@Editor@@MAE_NVPoint@@0@Z 1000962c f   Editor.obj
 0001:00008653       ?PointInSelMargin@Editor@@IAE_NVPoint@@@Z 10009653 f   Editor.obj
 0001:00008696       ?PositionIsHotspot@Editor@@IAE_NH@Z 10009696 f   Editor.obj
 0001:000086ca       ?GetHotSpotRange@Editor@@IAEXAAH0@Z 100096ca f   Editor.obj
 0001:000086e5       ?PaintContains@Editor@@MAE_NVPRectangle@@@Z 100096e5 f   Editor.obj
 0001:00008719       ?PaintContainsMargin@Editor@@IAE_NXZ 10009719 f   Editor.obj
 0001:00008753       ?CheckForChangeOutsidePaint@Editor@@IAEXVRange@@@Z 10009753 f   Editor.obj
 0001:000087d4       ?SetBraceHighlight@Editor@@IAEXHHH@Z 100097d4 f   Editor.obj
 0001:00008873       ?SetAnnotationHeights@Editor@@IAEXHH@Z 10009873 f   Editor.obj
 0001:000088b4       ?SetAnnotationVisible@Editor@@IAEXH@Z 100098b4 f   Editor.obj
 0001:0000895b       ?Expand@Editor@@IAEXAAH_N@Z 1000995b f   Editor.obj
 0001:000089d5       ?ReplaceTarget@Editor@@IAEH_NPBDH@Z 100099d5 f   Editor.obj
 0001:00008a8c       ?IsUnicodeMode@Editor@@QBE_NXZ 10009a8c f   Editor.obj
 0001:00008aa9       ?CodePage@Editor@@IBEHXZ   10009aa9 f   Editor.obj
 0001:00008ac7       ?StyleGetMessage@Editor@@IAEJIKJ@Z 10009ac7 f   Editor.obj
 0001:00008c17       ?Free@SelectionText@@QAEXXZ 10009c17 f i Editor.obj
 0001:00008c37       ??0AutoSurface@@QAE@PAVEditor@@@Z 10009c37 f i Editor.obj
 0001:00008c99       ??0AutoSurface@@QAE@PAXPAVEditor@@@Z 10009c99 f i Editor.obj
 0001:00008cff       ??0SelectionLineIterator@@QAE@PAVEditor@@_N@Z 10009cff f i Editor.obj
 0001:00008d99       ?RedrawSelMargin@Editor@@IAEXH@Z 10009d99 f   Editor.obj
 0001:00008e1b       ?ShowCaretAtCurrentPosition@Editor@@IAEXXZ 10009e1b f   Editor.obj
 0001:00008e56       ?DropCaret@Editor@@IAEXXZ  10009e56 f   Editor.obj
 0001:00008e62       ?LayoutLine@Editor@@IAEXHPAVSurface@@AAVViewStyle@@PAVLineLayout@@H@Z 10009e62 f   Editor.obj
 0001:0000961a       ?DrawWrapMarker@Editor@@IAEXPAVSurface@@VPRectangle@@_NVColourAllocated@@@Z 1000a61a f   Editor.obj
 0001:00009700       ?DrawEOL@Editor@@IAEXPAVSurface@@AAVViewStyle@@VPRectangle@@PAVLineLayout@@HHHHH_NVColourAllocated@@45@Z 1000a700 f   Editor.obj
 0001:000099f0       ?DrawLine@Editor@@IAEXPAVSurface@@AAVViewStyle@@HHHVPRectangle@@PAVLineLayout@@H@Z 1000a9f0 f   Editor.obj
 0001:0000aa53       ?RefreshPixMaps@Editor@@IAEXPAVSurface@@@Z 1000ba53 f   Editor.obj
 0001:0000aca0       ?InvertedLight@@YA?AVColourDesired@@V1@@Z 1000bca0 f   Editor.obj
 0001:0000ad3c       ?FormatRange@Editor@@IAEJ_NPAURangeToFormat@@@Z 1000bd3c f   Editor.obj
 0001:0000b359       ?DelChar@Editor@@IAEXXZ    1000c359 f   Editor.obj
 0001:0000b38b       ?NotifyChar@Editor@@IAEXH@Z 1000c38b f   Editor.obj
 0001:0000b3f4       ?CheckModificationForWrap@Editor@@IAEXVDocModification@@@Z 1000c3f4 f   Editor.obj
 0001:0000b46f       ?Duplicate@Editor@@IAEX_N@Z 1000c46f f   Editor.obj
 0001:0000b52a       ?SetFocusState@Editor@@IAEX_N@Z 1000c52a f   Editor.obj
 0001:0000b55f       ?WrapCount@Editor@@IAEHH@Z 1000c55f f   Editor.obj
 0001:0000b5fc       ??1SelectionText@@QAE@XZ   1000c5fc f i Editor.obj
 0001:0000b601       ??0Editor@@IAE@XZ          1000c601 f   Editor.obj
 0001:0000b979       ?GetCtrlID@Editor@@MAEHXZ  1000c979 f i Editor.obj
 0001:0000b980       ?SetIdle@Editor@@MAE_N_N@Z 1000c980 f i Editor.obj
 0001:0000b985       ?ValidCodePage@Editor@@MBE_NH@Z 1000c985 f i Editor.obj
 0001:0000b98a       ??1Editor@@MAE@XZ          1000c98a f   Editor.obj
 0001:0000ba97       ?PositionFromLocationClose@Editor@@IAEHVPoint@@@Z 1000ca97 f   Editor.obj
 0001:0000bca4       ?ScrollTo@Editor@@IAEXH_N@Z 1000cca4 f   Editor.obj
 0001:0000bd12       ?DisplayFromPosition@Editor@@IAEHH@Z 1000cd12 f   Editor.obj
 0001:0000bde4       ?WrapOneLine@Editor@@IAE_NPAVSurface@@H@Z 1000cde4 f   Editor.obj
 0001:0000be70       ?LinesSplit@Editor@@IAEXH@Z 1000ce70 f   Editor.obj
 0001:0000bffd       ?NotifyDoubleClick@Editor@@MAEXVPoint@@_N11@Z 1000cffd f   Editor.obj
 0001:0000c083       ?NotifyDwelling@Editor@@IAEXVPoint@@_N@Z 1000d083 f   Editor.obj
 0001:0000c0e9       ?CopyRangeToClipboard@Editor@@IAEXHH@Z 1000d0e9 f   Editor.obj
 0001:0000c17a       ?CopyText@Editor@@IAEXHPBD@Z 1000d17a f   Editor.obj
 0001:0000c1e5       ?DwellEnd@Editor@@IAEX_N@Z 1000d1e5 f   Editor.obj
 0001:0000c231       ?PointIsHotspot@Editor@@IAE_NVPoint@@@Z 1000d231 f   Editor.obj
 0001:0000c256       ??_GEditor@@MAEPAXI@Z      1000d256 f i Editor.obj
 0001:0000c256       ??_EEditor@@MAEPAXI@Z      1000d256 f i Editor.obj
 0001:0000c272       ?SetScrollBars@Editor@@IAEXXZ 1000d272 f   Editor.obj
 0001:0000c300       ?ChangeSize@Editor@@IAEXXZ 1000d300 f   Editor.obj
 0001:0000c360       ?NotifyModified@Editor@@MAEXPAVDocument@@VDocModification@@PAX@Z 1000d360 f   Editor.obj
 0001:0000c73f       ?KeyDown@Editor@@IAEHH_N00PA_N@Z 1000d73f f   Editor.obj
 0001:0000c7ba       ?SetDocPointer@Editor@@IAEXPAVDocument@@@Z 1000d7ba f   Editor.obj
 0001:0000c8bb       ?RefreshStyleData@Editor@@IAEXXZ 1000d8bb f   Editor.obj
 0001:0000c932       ?LocationFromPosition@Editor@@IAE?AVPoint@@H@Z 1000d932 f   Editor.obj
 0001:0000cae9       ?XFromPosition@Editor@@IAEHH@Z 1000dae9 f   Editor.obj
 0001:0000cb11       ?PositionFromLocation@Editor@@IAEHVPoint@@@Z 1000db11 f   Editor.obj
 0001:0000ccf7       ?PositionFromLineX@Editor@@IAEHHH@Z 1000dcf7 f   Editor.obj
 0001:0000ce57       ?SetRectangularRange@Editor@@IAEXXZ 1000de57 f   Editor.obj
 0001:0000ce89       ?SetSelection@Editor@@IAEXHH@Z 1000de89 f   Editor.obj
 0001:0000ceed       ?SetSelection@Editor@@IAEXH@Z 1000deed f   Editor.obj
 0001:0000cf33       ?SetEmptySelection@Editor@@IAEXH@Z 1000df33 f   Editor.obj
 0001:0000cf54       ?SetLastXChosen@Editor@@IAEXXZ 1000df54 f   Editor.obj
 0001:0000cf77       ?EnsureCaretVisible@Editor@@IAEX_N00@Z 1000df77 f   Editor.obj
 0001:0000d3c7       ?WrapLines@Editor@@IAE_N_NH@Z 1000e3c7 f   Editor.obj
 0001:0000d67b       ?TextWidth@Editor@@IAEHHPBD@Z 1000e67b f   Editor.obj
 0001:0000d6e3       ?SelectAll@Editor@@IAEXXZ  1000e6e3 f   Editor.obj
 0001:0000d706       ?Undo@Editor@@IAEXXZ       1000e706 f   Editor.obj
 0001:0000d748       ?Redo@Editor@@IAEXXZ       1000e748 f   Editor.obj
 0001:0000d783       ?StartEndDisplayLine@Editor@@IAEHH_N@Z 1000e783 f   Editor.obj
 0001:0000d8ce       ?SearchText@Editor@@IAEJIKJ@Z 1000e8ce f   Editor.obj
 0001:0000d99a       ?GoToLine@Editor@@IAEXH@Z  1000e99a f   Editor.obj
 0001:0000d9ef       ?LineSelection@Editor@@IAEXHH@Z 1000e9ef f   Editor.obj
 0001:0000da43       ?SetHotSpotRange@Editor@@IAEXPAVPoint@@@Z 1000ea43 f   Editor.obj
 0001:0000daf5       ?ButtonUp@Editor@@IAEXVPoint@@I_N@Z 1000eaf5 f   Editor.obj
 0001:0000dd00       ?Idle@Editor@@IAE_NXZ      1000ed00 f   Editor.obj
 0001:0000dd35       ?EnsureLineVisible@Editor@@IAEXH_N@Z 1000ed35 f   Editor.obj
 0001:0000dec3       ?AddStyledText@Editor@@IAEXPADH@Z 1000eec3 f   Editor.obj
 0001:0000df60       ?InvalidateStyleData@Editor@@IAEXXZ 1000ef60 f   Editor.obj
 0001:0000dfc0       ?InvalidateStyleRedraw@Editor@@IAEXXZ 1000efc0 f   Editor.obj
 0001:0000dfde       ?SetAt@SelectionLineIterator@@QAEXH@Z 1000efde f i Editor.obj
 0001:0000e06f       ?Iterate@SelectionLineIterator@@QAE_NXZ 1000f06f f i Editor.obj
 0001:0000e093       ?SelectionContainsProtected@Editor@@IAE_NXZ 1000f093 f   Editor.obj
 0001:0000e0f1       ?MovePositionTo@Editor@@IAEHHW4selTypes@1@_N@Z 1000f0f1 f   Editor.obj
 0001:0000e16e       ?MoveCaretInsideView@Editor@@IAEX_N@Z 1000f16e f   Editor.obj
 0001:0000e1ff       ?Paint@Editor@@IAEXPAVSurface@@VPRectangle@@@Z 1000f1ff f   Editor.obj
 0001:0000eca7       ?ClearSelection@Editor@@IAEXXZ 1000fca7 f   Editor.obj
 0001:0000ed6d       ?ClearAll@Editor@@IAEXXZ   1000fd6d f   Editor.obj
 0001:0000ee13       ?Cut@Editor@@IAEXXZ        1000fe13 f   Editor.obj
 0001:0000ee50       ?PasteRectangular@Editor@@IAEXHPBDH@Z 1000fe50 f   Editor.obj
 0001:0000f013       ?CanPaste@Editor@@MAE_NXZ  10010013 f   Editor.obj
 0001:0000f03c       ?Clear@Editor@@IAEXXZ      1001003c f   Editor.obj
 0001:0000f07a       ?DelCharBack@Editor@@IAEX_N@Z 1001007a f   Editor.obj
 0001:0000f1b4       ?PageMove@Editor@@IAEXHW4selTypes@1@_N@Z 100101b4 f   Editor.obj
 0001:0000f2f9       ?ChangeCaseOfSelection@Editor@@IAEX_N@Z 100102f9 f   Editor.obj
 0001:0000f3a1       ?LineTranspose@Editor@@IAEXXZ 100103a1 f   Editor.obj
 0001:0000f4b4       ?NewLine@Editor@@IAEXXZ    100104b4 f   Editor.obj
 0001:0000f540       ?CursorUpOrDown@Editor@@IAEXHW4selTypes@1@@Z 10010540 f   Editor.obj
 0001:0000f651       ?ParaUpOrDown@Editor@@IAEXHW4selTypes@1@@Z 10010651 f   Editor.obj
 0001:0000f700       ?Indent@Editor@@IAEX_N@Z   10010700 f   Editor.obj
 0001:0000f9f0       ?CopySelectionRange@Editor@@IAEXPAVSelectionText@@_N@Z 100109f0 f   Editor.obj
 0001:0000fb4f       ?PositionInSelection@Editor@@IAEHH@Z 10010b4f f   Editor.obj
 0001:0000fbcf       ?PointInSelection@Editor@@IAE_NVPoint@@@Z 10010bcf f   Editor.obj
 0001:0000fc80       ?ButtonDown@Editor@@MAEXVPoint@@I_N11@Z 10010c80 f   Editor.obj
 0001:0001003f       ?ButtonMove@Editor@@IAEXVPoint@@@Z 1001103f f   Editor.obj
 0001:00010303       ?Tick@Editor@@IAEXXZ       10011303 f   Editor.obj
 0001:000103d2       ?ToggleContraction@Editor@@IAEXH@Z 100113d2 f   Editor.obj
 0001:000104d6       ?StyleSetMessage@Editor@@IAEXIKJ@Z 100114d6 f   Editor.obj
 0001:0001065e       ?WndProc@Editor@@UAEJIKJ@Z 1001165e f   Editor.obj
 0001:00012edb       ?AddCharUTF@Editor@@MAEXPADI_N@Z 10013edb f   Editor.obj
 0001:000130b8       ?KeyCommand@Editor@@MAEHI@Z 100140b8 f   Editor.obj
 0001:00013a1f       ?DropAt@Editor@@IAEXHPBD_N1@Z 10014a1f f   Editor.obj
 0001:00013b88       ??1SContainer@@IAE@XZ      10014b88 f i ExternalLexer.obj
 0001:00013b9c       ??1SString@@QAE@XZ         10014b9c f i ExternalLexer.obj
 0001:00013ba5       ??0ExternalLexerModule@@QAE@HP6AXIHHQAPAVWordList@@AAVAccessor@@@ZPBD2@Z 10014ba5 f i ExternalLexer.obj
 0001:00013be2       ?WordListsToStrings@@YAPAPADQAPAVWordList@@@Z 10014be2 f   ExternalLexer.obj
 0001:00013ce8       ?DeleteWLStrings@@YAXQAPAD@Z 10014ce8 f   ExternalLexer.obj
 0001:00013d0d       ?Lex@ExternalLexerModule@@UBEXIHHQAPAVWordList@@AAVAccessor@@@Z 10014d0d f   ExternalLexer.obj
 0001:00013d61       ?Fold@ExternalLexerModule@@UBEXIHHQAPAVWordList@@AAVAccessor@@@Z 10014d61 f   ExternalLexer.obj
 0001:00013db5       ?SetExternal@ExternalLexerModule@@UAEXP6GXIIHHQAPADPAXPAD@Z3H@Z 10014db5 f   ExternalLexer.obj
 0001:00013dcd       ??0LexerLibrary@@QAE@PBD@Z 10014dcd f   ExternalLexer.obj
 0001:00013f26       ?Release@LexerLibrary@@QAEXXZ 10014f26 f   ExternalLexer.obj
 0001:00013f5a       ??0LexerManager@@AAE@XZ    10014f5a f   ExternalLexer.obj
 0001:00013f64       ?LoadLexerLibrary@LexerManager@@AAEXPBD@Z 10014f64 f   ExternalLexer.obj
 0001:00013fad       ??_EExternalLexerModule@@UAEPAXI@Z 10014fad f i ExternalLexer.obj
 0001:00013fad       ??_GExternalLexerModule@@UAEPAXI@Z 10014fad f i ExternalLexer.obj
 0001:00013fad       ??_ELexerModule@@UAEPAXI@Z 10014fad f i ExternalLexer.obj
 0001:00013fad       ??_GLexerModule@@UAEPAXI@Z 10014fad f i ExternalLexer.obj
 0001:00013fca       ??1LexerLibrary@@QAE@XZ    10014fca f   ExternalLexer.obj
 0001:00014006       ?GetInstance@LexerManager@@SAPAV1@XZ 10015006 f   ExternalLexer.obj
 0001:0001402c       ?Load@LexerManager@@QAEXPBD@Z 1001502c f   ExternalLexer.obj
 0001:00014031       ?Clear@LexerManager@@QAEXXZ 10015031 f   ExternalLexer.obj
 0001:0001405c       ??1LexerManager@@QAE@XZ    1001505c f   ExternalLexer.obj
 0001:00014061       ?DeleteInstance@LexerManager@@SAXXZ 10015061 f   ExternalLexer.obj
 0001:00014083       ??1LMMinder@@QAE@XZ        10015083 f   ExternalLexer.obj
 0001:00014088       ?Draw@Indicator@@QAEXPAVSurface@@ABVPRectangle@@1@Z 10015088 f   Indicator.obj
 0001:000142b8       ?FreeWords@LineToItem@@AAEXXZ 100152b8 f   PlatWin.obj
 0001:000142b8       ?Clear@KeyMap@@QAEXXZ      100152b8 f   KeyMap.obj
 0001:000142cf       ?AssignCmdKey@KeyMap@@QAEXHHI@Z 100152cf f   KeyMap.obj
 0001:00014395       ?Find@KeyMap@@QAEIHH@Z     10015395 f   KeyMap.obj
 0001:000143cd       ??0KeyMap@@QAE@XZ          100153cd f   KeyMap.obj
 0001:0001440e       ??1KeyMap@@QAE@XZ          1001540e f   KeyMap.obj
 0001:00014413       ??0LexerModule@@QAE@HP6AXIHHQAPAVWordList@@AAVAccessor@@@ZPBD2QBQBDH@Z 10015413 f   KeyWords.obj
 0001:0001446c       ?GetStyleBitsNeeded@LexerModule@@QBEHXZ 1001546c f   KeyWords.obj
 0001:00014470       ?Find@LexerModule@@SAPBV1@H@Z 10015470 f   KeyWords.obj
 0001:00014488       ?Find@LexerModule@@SAPBV1@PBD@Z 10015488 f   KeyWords.obj
 0001:000144be       ?Lex@LexerModule@@UBEXIHHQAPAVWordList@@AAVAccessor@@@Z 100154be f   KeyWords.obj
 0001:000144e0       ?Fold@LexerModule@@UBEXIHHQAPAVWordList@@AAVAccessor@@@Z 100154e0 f   KeyWords.obj
 0001:0001453d       ?Scintilla_LinkLexers@@YAHXZ 1001553d f   KeyWords.obj
 0001:00014560       ?IsLeadByte@Accessor@@QAE_ND@Z 10015560 f i LexHTML.obj
 0001:0001457f       ?GetNextChar@StyleContext@@AAEXI@Z 1001557f f i LexHTML.obj
 0001:000145ea       ??0StyleContext@@QAE@IIHAAVAccessor@@D@Z 100155ea f i LexHTML.obj
 0001:00014678       ?Forward@StyleContext@@QAEXXZ 10015678 f i LexHTML.obj
 0001:000146cb       ?SetState@StyleContext@@QAEXH@Z 100156cb f i LexHTML.obj
 0001:000146e8       ?ForwardSetState@StyleContext@@QAEXH@Z 100156e8 f i LexHTML.obj
 0001:0001470a       ?Match@StyleContext@@QAE_NDD@Z 1001570a f i LexHTML.obj
 0001:00014728       ?Match@StyleContext@@QAE_NPBD@Z 10015728 f i LexHTML.obj
 0001:0001477c       ?IsASpace@@YA_NI@Z         1001577c f i LexHTML.obj
 0001:00014796       ??1CharacterSet@@QAE@XZ    10015796 f i LexHTML.obj
 0001:000147ab       ?AddString@CharacterSet@@QAEXPBD@Z 100157ab f i LexHTML.obj
 0001:000147ef       ?IsOperator@@YA_NH@Z       100157ef f i LexHTML.obj
 0001:00015b14       ??0CharacterSet@@QAE@W4setBase@0@PBDH_N@Z 10016b14 f i LexHTML.obj
 0001:00018216       ?isspacechar@@YA_NE@Z      10019216 f i LexMSSQL.obj
 0001:0001822d       ?iswordchar@@YA_ND@Z       1001922d f i LexMSSQL.obj
 0001:00018258       ?iswordstart@@YA_ND@Z      10019258 f i LexMSSQL.obj
 0001:00018b50       ?isoperator@@YA_ND@Z       10019b50 f i LexMySQL.obj
 0001:00019cf7       ?RefreshColourPalette@LineMarker@@QAEXAAVPalette@@_N@Z 1001acf7 f   LineMarker.obj
 0001:00019d2d       ?SetXPM@LineMarker@@QAEXPBD@Z 1001ad2d f   LineMarker.obj
 0001:00019ebb       ?Draw@LineMarker@@QAEXPAVSurface@@AAVPRectangle@@AAVFont@@@Z 1001aebb f   LineMarker.obj
 0001:0001a6a5       ??1MarkerHandleSet@@QAE@XZ 1001b6a5 f   PerLine.obj
 0001:0001a6c2       ?Length@MarkerHandleSet@@QBEHXZ 1001b6c2 f   PerLine.obj
 0001:0001a6d1       ?MarkValue@MarkerHandleSet@@QBEHXZ 1001b6d1 f   PerLine.obj
 0001:0001a6ed       ?Contains@MarkerHandleSet@@QBE_NH@Z 1001b6ed f   PerLine.obj
 0001:0001a709       ?InsertHandle@MarkerHandleSet@@QAE_NHH@Z 1001b709 f   PerLine.obj
 0001:0001a736       ?RemoveHandle@MarkerHandleSet@@QAEXH@Z 1001b736 f   PerLine.obj
 0001:0001a75b       ?RemoveNumber@MarkerHandleSet@@QAE_NH@Z 1001b75b f   PerLine.obj
 0001:0001a78c       ?CombineWith@MarkerHandleSet@@QAEXPAV1@@Z 1001b78c f   PerLine.obj
 0001:0001a7ef       ??A?$SplitVector@H@@QBEAAHH@Z 1001b7ef f i PerLine.obj
 0001:0001a7ef       ??A?$SplitVector@PAVMarkerHandleSet@@@@QBEAAPAVMarkerHandleSet@@H@Z 1001b7ef f i PerLine.obj
 0001:0001a7ef       ??A?$SplitVector@PAD@@QBEAAPADH@Z 1001b7ef f i PerLine.obj
 0001:0001a80c       ?GapTo@?$SplitVector@PAVMarkerHandleSet@@@@IAEXH@Z 1001b80c f i PerLine.obj
 0001:0001a80c       ?GapTo@?$SplitVector@PAD@@IAEXH@Z 1001b80c f i PerLine.obj
 0001:0001a80c       ?GapTo@?$SplitVector@H@@IAEXH@Z 1001b80c f i CellBuffer.obj
 0001:0001a855       ?DeleteRange@?$SplitVector@H@@QAEXHH@Z 1001b855 f i CellBuffer.obj
 0001:0001a855       ?DeleteRange@?$SplitVector@PAVMarkerHandleSet@@@@QAEXHH@Z 1001b855 f i PerLine.obj
 0001:0001a855       ?DeleteRange@?$SplitVector@PAD@@QAEXHH@Z 1001b855 f i PerLine.obj
 0001:0001a8b1       ?ReAllocate@?$SplitVector@PAD@@QAEXH@Z 1001b8b1 f i PerLine.obj
 0001:0001a8b1       ?ReAllocate@?$SplitVector@H@@QAEXH@Z 1001b8b1 f i CellBuffer.obj
 0001:0001a8b1       ?ReAllocate@?$SplitVector@PAVMarkerHandleSet@@@@QAEXH@Z 1001b8b1 f i PerLine.obj
 0001:0001a917       ?LineFromHandle@LineMarkers@@QAEHH@Z 1001b917 f   PerLine.obj
 0001:0001a960       ?MergeMarkers@LineMarkers@@QAEXH@Z 1001b960 f   PerLine.obj
 0001:0001a9fe       ?MarkValue@LineMarkers@@QAEHH@Z 1001b9fe f   PerLine.obj
 0001:0001aa3b       ?DeleteMark@LineMarkers@@QAEXHH_N@Z 1001ba3b f   PerLine.obj
 0001:0001aae6       ?DeleteMarkFromHandle@LineMarkers@@QAEXH@Z 1001bae6 f   PerLine.obj
 0001:0001ab50       ??1LineLevels@@UAE@XZ      1001bb50 f   PerLine.obj
 0001:0001ab84       ?GetLevel@LineLevels@@QAEHH@Z 1001bb84 f   PerLine.obj
 0001:0001abac       ??1LineState@@UAE@XZ       1001bbac f   PerLine.obj
 0001:0001abe0       ?GetMaxLineState@LineState@@QAEHXZ 1001bbe0 f   PerLine.obj
 0001:0001abe4       ?MultipleStyles@LineAnnotation@@QBE_NH@Z 1001bbe4 f   PerLine.obj
 0001:0001ac27       ?Style@LineAnnotation@@QAEHH@Z 1001bc27 f   PerLine.obj
 0001:0001ac5e       ?Text@LineAnnotation@@QBEPBDH@Z 1001bc5e f   PerLine.obj
 0001:0001ac95       ?Length@LineAnnotation@@QBEHH@Z 1001bc95 f   PerLine.obj
 0001:0001accc       ?Lines@LineAnnotation@@QBEHH@Z 1001bccc f   PerLine.obj
 0001:0001ad04       ?Delete@?$SplitVector@PAD@@QAEXH@Z 1001bd04 f i PerLine.obj
 0001:0001ad04       ?Delete@?$SplitVector@H@@QAEXH@Z 1001bd04 f i CellBuffer.obj
 0001:0001ad04       ?Delete@?$SplitVector@PAVMarkerHandleSet@@@@QAEXH@Z 1001bd04 f i PerLine.obj
 0001:0001ad1c       ?RoomFor@?$SplitVector@H@@IAEXH@Z 1001bd1c f i CellBuffer.obj
 0001:0001ad1c       ?RoomFor@?$SplitVector@PAVMarkerHandleSet@@@@IAEXH@Z 1001bd1c f i PerLine.obj
 0001:0001ad1c       ?RoomFor@?$SplitVector@PAD@@IAEXH@Z 1001bd1c f i PerLine.obj
 0001:0001ad4e       ??1LineMarkers@@UAE@XZ     1001bd4e f   PerLine.obj
 0001:0001adcc       ?RemoveLine@LineMarkers@@UAEXH@Z 1001bdcc f   PerLine.obj
 0001:0001adf5       ?RemoveLine@LineLevels@@UAEXH@Z 1001bdf5 f   PerLine.obj
 0001:0001ae32       ?ClearLevels@LineLevels@@QAEXXZ 1001be32 f   PerLine.obj
 0001:0001ae40       ?RemoveLine@LineState@@UAEXH@Z 1001be40 f   PerLine.obj
 0001:0001ae55       ?RemoveLine@LineAnnotation@@UAEXH@Z 1001be55 f   PerLine.obj
 0001:0001ae86       ?Styles@LineAnnotation@@QBEPBEH@Z 1001be86 f   PerLine.obj
 0001:0001aed8       ?ClearAll@LineAnnotation@@QAEXXZ 1001bed8 f   PerLine.obj
 0001:0001af19       ?InsertValue@?$SplitVector@H@@QAEXHHH@Z 1001bf19 f i PerLine.obj
 0001:0001af19       ?InsertValue@?$SplitVector@PAD@@QAEXHHPAD@Z 1001bf19 f i PerLine.obj
 0001:0001af19       ?InsertValue@?$SplitVector@PAVMarkerHandleSet@@@@QAEXHHPAVMarkerHandleSet@@@Z 1001bf19 f i PerLine.obj
 0001:0001af69       ?EnsureLength@?$SplitVector@H@@QAEXH@Z 1001bf69 f i PerLine.obj
 0001:0001af69       ?EnsureLength@?$SplitVector@PAD@@QAEXH@Z 1001bf69 f i PerLine.obj
 0001:0001af83       ?InsertLine@LineAnnotation@@UAEXH@Z 1001bf83 f   PerLine.obj
 0001:0001af83       ?InsertLine@LineMarkers@@UAEXH@Z 1001bf83 f   PerLine.obj
 0001:0001af9a       ?AddMark@LineMarkers@@QAEHHHH@Z 1001bf9a f   PerLine.obj
 0001:0001b020       ?InsertLine@LineLevels@@UAEXH@Z 1001c020 f   PerLine.obj
 0001:0001b060       ?ExpandLevels@LineLevels@@QAEXH@Z 1001c060 f   PerLine.obj
 0001:0001b07b       ?SetLevel@LineLevels@@QAEHHHH@Z 1001c07b f   PerLine.obj
 0001:0001b0c9       ?InsertLine@LineState@@UAEXH@Z 1001c0c9 f   PerLine.obj
 0001:0001b0ef       ?SetLineState@LineState@@QAEHHH@Z 1001c0ef f   PerLine.obj
 0001:0001b124       ?GetLineState@LineState@@QAEHH@Z 1001c124 f   PerLine.obj
 0001:0001b147       ??1LineAnnotation@@UAE@XZ  1001c147 f   PerLine.obj
 0001:0001b187       ?SetText@LineAnnotation@@QAEXHPBD@Z 1001c187 f   PerLine.obj
 0001:0001b27a       ?SetStyle@LineAnnotation@@QAEXHH@Z 1001c27a f   PerLine.obj
 0001:0001b2cb       ?SetStyles@LineAnnotation@@QAEXHPBE@Z 1001c2cb f   PerLine.obj
 0001:0001b3b3       ??_GSurface@@UAEPAXI@Z     1001c3b3 f i PlatWin.obj
 0001:0001b3b3       ??_ESurface@@UAEPAXI@Z     1001c3b3 f i PlatWin.obj
 0001:0001b3d0       ??_EDynamicLibrary@@UAEPAXI@Z 1001c3d0 f i PlatWin.obj
 0001:0001b3d0       ??_GDynamicLibrary@@UAEPAXI@Z 1001c3d0 f i PlatWin.obj
 0001:0001b3fe       ?IsNT@@YA_NXZ              1001c3fe f   PlatWin.obj
 0001:0001b404       ?FromLong@Point@@SA?AV1@J@Z 1001c404 f   PlatWin.obj
 0001:0001b437       ?Allocate@Palette@@QAEXAAVWindow@@@Z 1001c437 f   PlatWin.obj
 0001:0001b56b       ?SameAs@FontCached@@AAE_NPBDHH_N1@Z 1001c56b f   PlatWin.obj
 0001:0001b5ca       ?Release@FontCached@@EAEXXZ 1001c5ca f   PlatWin.obj
 0001:0001b5e1       ?ReleaseId@FontCached@@SAXPAX@Z 1001c5e1 f   PlatWin.obj
 0001:0001b637       ??0Font@@QAE@XZ            1001c637 f   PlatWin.obj
 0001:0001b644       ??1Font@@UAE@XZ            1001c644 f   PlatWin.obj
 0001:0001b64b       ?Release@Font@@UAEXXZ      1001c64b f   PlatWin.obj
 0001:0001b662       ??0SurfaceImpl@@QAE@XZ     1001c662 f   PlatWin.obj
 0001:0001b6c9       ?Release@SurfaceImpl@@UAEXXZ 1001c6c9 f   PlatWin.obj
 0001:0001b767       ?Initialised@SurfaceImpl@@UAE_NXZ 1001c767 f   PlatWin.obj
 0001:0001b770       ?Init@SurfaceImpl@@UAEXPAX@Z 1001c770 f   PlatWin.obj
 0001:0001b794       ?Init@SurfaceImpl@@UAEXPAX0@Z 1001c794 f   PlatWin.obj
 0001:0001b7b0       ?InitPixMap@SurfaceImpl@@UAEXHHPAVSurface@@PAX@Z 1001c7b0 f   PlatWin.obj
 0001:0001b7fe       ?PenColour@SurfaceImpl@@UAEXVColourAllocated@@@Z 1001c7fe f   PlatWin.obj
 0001:0001b846       ?BrushColor@SurfaceImpl@@AAEXVColourAllocated@@@Z 1001c846 f   PlatWin.obj
 0001:0001b894       ?SetFont@SurfaceImpl@@AAEXAAVFont@@@Z 1001c894 f   PlatWin.obj
 0001:0001b8ca       ?LogPixelsY@SurfaceImpl@@UAEHXZ 1001c8ca f   PlatWin.obj
 0001:0001b8d6       ?DeviceHeightFont@SurfaceImpl@@UAEHH@Z 1001c8d6 f   PlatWin.obj
 0001:0001b8eb       ?MoveTo@SurfaceImpl@@UAEXHH@Z 1001c8eb f   PlatWin.obj
 0001:0001b901       ?LineTo@SurfaceImpl@@UAEXHH@Z 1001c901 f   PlatWin.obj
 0001:0001b915       ?Polygon@SurfaceImpl@@UAEXPAVPoint@@HVColourAllocated@@1@Z 1001c915 f   PlatWin.obj
 0001:0001b941       ?RectangleDraw@SurfaceImpl@@UAEXVPRectangle@@VColourAllocated@@1@Z 1001c941 f   PlatWin.obj
 0001:0001b973       ?FillRectangle@SurfaceImpl@@UAEXVPRectangle@@VColourAllocated@@@Z 1001c973 f   PlatWin.obj
 0001:0001b9cf       ?FillRectangle@SurfaceImpl@@UAEXVPRectangle@@AAVSurface@@@Z 1001c9cf f   PlatWin.obj
 0001:0001ba3a       ?RoundedRectangle@SurfaceImpl@@UAEXVPRectangle@@VColourAllocated@@1@Z 1001ca3a f   PlatWin.obj
 0001:0001bac1       ?Ellipse@SurfaceImpl@@UAEXVPRectangle@@VColourAllocated@@1@Z 1001cac1 f   PlatWin.obj
 0001:0001baf3       ?Copy@SurfaceImpl@@UAEXVPRectangle@@VPoint@@AAVSurface@@@Z 1001caf3 f   PlatWin.obj
 0001:0001bb28       ?WidthChar@SurfaceImpl@@UAEHAAVFont@@D@Z 1001cb28 f   PlatWin.obj
 0001:0001bb53       ?Ascent@SurfaceImpl@@UAEHAAVFont@@@Z 1001cb53 f   PlatWin.obj
 0001:0001bb79       ?Descent@SurfaceImpl@@UAEHAAVFont@@@Z 1001cb79 f   PlatWin.obj
 0001:0001bb9f       ?InternalLeading@SurfaceImpl@@UAEHAAVFont@@@Z 1001cb9f f   PlatWin.obj
 0001:0001bbc5       ?ExternalLeading@SurfaceImpl@@UAEHAAVFont@@@Z 1001cbc5 f   PlatWin.obj
 0001:0001bbeb       ?Height@SurfaceImpl@@UAEHAAVFont@@@Z 1001cbeb f   PlatWin.obj
 0001:0001bc11       ?AverageCharWidth@SurfaceImpl@@UAEHAAVFont@@@Z 1001cc11 f   PlatWin.obj
 0001:0001bc37       ?SetPalette@SurfaceImpl@@UAEHPAVPalette@@_N@Z 1001cc37 f   PlatWin.obj
 0001:0001bc7e       ?SetClip@SurfaceImpl@@UAEXVPRectangle@@@Z 1001cc7e f   PlatWin.obj
 0001:0001bc9a       ?FlushCachedState@SurfaceImpl@@UAEXXZ 1001cc9a f   PlatWin.obj
 0001:0001bca6       ?SetUnicodeMode@SurfaceImpl@@UAEX_N@Z 1001cca6 f   PlatWin.obj
 0001:0001bcb0       ?SetDBCSMode@SurfaceImpl@@UAEXH@Z 1001ccb0 f   PlatWin.obj
 0001:0001bcdc       ?Allocate@Surface@@SAPAV1@XZ 1001ccdc f   PlatWin.obj
 0001:0001bcf2       ??1Window@@UAE@XZ          1001ccf2 f   PlatWin.obj
 0001:0001bcf9       ?Destroy@Window@@QAEXXZ    1001ccf9 f   PlatWin.obj
 0001:0001bd10       ?GetPosition@Window@@QAE?AVPRectangle@@XZ 1001cd10 f   PlatWin.obj
 0001:0001bd41       ?SetPosition@Window@@QAEXVPRectangle@@@Z 1001cd41 f   PlatWin.obj
 0001:0001bd69       ?SetPositionRelative@Window@@QAEXVPRectangle@@V1@@Z 1001cd69 f   PlatWin.obj
 0001:0001bdde       ?GetClientPosition@Window@@QAE?AVPRectangle@@XZ 1001cdde f   PlatWin.obj
 0001:0001be22       ?Show@Window@@QAEX_N@Z     1001ce22 f   PlatWin.obj
 0001:0001be3b       ?InvalidateAll@Window@@QAEXXZ 1001ce3b f   PlatWin.obj
 0001:0001be49       ?InvalidateRectangle@Window@@QAEXVPRectangle@@@Z 1001ce49 f   PlatWin.obj
 0001:0001be9f       ?SetFont@Window@@UAEXAAVFont@@@Z 1001ce9f f   PlatWin.obj
 0001:0001beb7       ?SetCursor@Window@@QAEXW4Cursor@1@@Z 1001ceb7 f   PlatWin.obj
 0001:0001bf87       ?GetMonitorRect@Window@@QAE?AVPRectangle@@VPoint@@@Z 1001cf87 f   PlatWin.obj
 0001:0001bf9b       ?Clear@LineToItem@@QAEXXZ  1001cf9b f i PlatWin.obj
 0001:0001bfb9       ?Get@LineToItem@@QBE?AUListItemData@@H@Z 1001cfb9 f i PlatWin.obj
 0001:0001bff1       ?AllocWord@LineToItem@@AAEPADPBD@Z 1001cff1 f   PlatWin.obj
 0001:0001c079       ?AllocItem@LineToItem@@QAEPAUListItemData@@XZ 1001d079 f   PlatWin.obj
 0001:0001c0dd       ?Append@LineToItem@@QAEPAUListItemData@@PBDH@Z 1001d0dd f   PlatWin.obj
 0001:0001c103       ??0ListBox@@QAE@XZ         1001d103 f   PlatWin.obj
 0001:0001c114       ??1ListBox@@UAE@XZ         1001d114 f   PlatWin.obj
 0001:0001c11f       ?Create@ListBoxX@@UAEXAAVWindow@@HVPoint@@H_N@Z 1001d11f f   PlatWin.obj
 0001:0001c19c       ?SetFont@ListBoxX@@UAEXAAVFont@@@Z 1001d19c f   PlatWin.obj
 0001:0001c202       ?SetAverageCharWidth@ListBoxX@@UAEXH@Z 1001d202 f   PlatWin.obj
 0001:0001c20c       ?SetVisibleRows@ListBoxX@@UAEXH@Z 1001d20c f   PlatWin.obj
 0001:0001c216       ?GetVisibleRows@ListBoxX@@UBEHXZ 1001d216 f   PlatWin.obj
 0001:0001c21a       ?GetHWND@ListBoxX@@ABEPAUHWND__@@XZ 1001d21a f   PlatWin.obj
 0001:0001c21e       ?TextOffset@ListBoxX@@ABEHXZ 1001d21e f   PlatWin.obj
 0001:0001c23d       ?Clear@ListBoxX@@UAEXXZ    1001d23d f   PlatWin.obj
 0001:0001c263       ?Append@ListBoxX@@UAEXPADH@Z 1001d263 f   PlatWin.obj
 0001:0001c2ad       ?Length@ListBoxX@@UAEHXZ   1001d2ad f   PlatWin.obj
 0001:0001c2b1       ?GetSelection@ListBoxX@@UAEHXZ 1001d2b1 f   PlatWin.obj
 0001:0001c2c4       ?Find@ListBoxX@@UAEHPBD@Z  1001d2c4 f   PlatWin.obj
 0001:0001c2ca       ?GetValue@ListBoxX@@UAEXHPADH@Z 1001d2ca f   PlatWin.obj
 0001:0001c2fe       ?RegisterImage@ListBoxX@@UAEXHPBD@Z 1001d2fe f   PlatWin.obj
 0001:0001c306       ?ClearRegisteredImages@ListBoxX@@UAEXXZ 1001d306 f   PlatWin.obj
 0001:0001c30e       ?AppendListItem@ListBoxX@@AAEXPBD0@Z 1001d30e f   PlatWin.obj
 0001:0001c363       ?AdjustWindowRect@ListBoxX@@ABEXPAVPRectangle@@@Z 1001d363 f   PlatWin.obj
 0001:0001c37c       ?ItemHeight@ListBoxX@@ABEHXZ 1001d37c f   PlatWin.obj
 0001:0001c3a4       ?MinClientWidth@ListBoxX@@ABEHXZ 1001d3a4 f   PlatWin.obj
 0001:0001c3b8       ?MinTrackSize@ListBoxX@@ABE?AVPoint@@XZ 1001d3b8 f   PlatWin.obj
 0001:0001c403       ?MaxTrackSize@ListBoxX@@ABE?AVPoint@@XZ 1001d403 f   PlatWin.obj
 0001:0001c473       ?SetRedraw@ListBoxX@@AAEX_N@Z 1001d473 f   PlatWin.obj
 0001:0001c4a1       ?StartResize@ListBoxX@@AAEXI@Z 1001d4a1 f   PlatWin.obj
 0001:0001c545       ?NcHitTest@ListBoxX@@ABEHIJ@Z 1001d545 f   PlatWin.obj
 0001:0001c602       ?OnDoubleClick@ListBoxX@@AAEXXZ 1001d602 f   PlatWin.obj
 0001:0001c610       ?GetClientExtent@ListBoxX@@ABE?AVPoint@@XZ 1001d610 f   PlatWin.obj
 0001:0001c637       ?CentreItem@ListBoxX@@AAEXH@Z 1001d637 f   PlatWin.obj
 0001:0001c6aa       ?Paint@ListBoxX@@AAEXPAUHDC__@@@Z 1001d6aa f   PlatWin.obj
 0001:0001c761       ?ControlWndProc@ListBoxX@@CGJPAUHWND__@@IIJ@Z 1001d761 f   PlatWin.obj
 0001:0001c86b       ?ListBoxX_Unregister@@YA_NXZ 1001d86b f   PlatWin.obj
 0001:0001c883       ??0MarkerHandleSet@@QAE@XZ 1001d883 f   PerLine.obj
 0001:0001c883       ??0Menu@@QAE@XZ            1001d883 f   PlatWin.obj
 0001:0001c889       ?Destroy@Menu@@QAEXXZ      1001d889 f   PlatWin.obj
 0001:0001c89e       ?Show@Menu@@QAEXVPoint@@AAVWindow@@@Z 1001d89e f   PlatWin.obj
 0001:0001c8cc       ?Chrome@Platform@@SA?AVColourDesired@@XZ 1001d8cc f   PlatWin.obj
 0001:0001c8dd       ?ChromeHighlight@Platform@@SA?AVColourDesired@@XZ 1001d8dd f   PlatWin.obj
 0001:0001c8ee       ?DefaultFont@Platform@@SAPBDXZ 1001d8ee f   PlatWin.obj
 0001:0001c8f4       ?DefaultFontSize@Platform@@SAHXZ 1001d8f4 f   PlatWin.obj
 0001:0001c8f8       ?DoubleClickTime@Platform@@SAIXZ 1001d8f8 f   PlatWin.obj
 0001:0001c8fe       ?MouseButtonBounce@Platform@@SA_NXZ 1001d8fe f   PlatWin.obj
 0001:0001c901       ?IsKeyDown@Platform@@SA_NH@Z 1001d901 f   PlatWin.obj
 0001:0001c910       ?IsDBCSLeadByte@Platform@@SA_NHD@Z 1001d910 f   PlatWin.obj
 0001:0001c925       ?DBCSCharLength@Platform@@SAHHPBD@Z 1001d925 f   PlatWin.obj
 0001:0001c942       ?DBCSCharMaxLength@Platform@@SAHXZ 1001d942 f   PlatWin.obj
 0001:0001c946       ?Minimum@Platform@@SAHHH@Z 1001d946 f   PlatWin.obj
 0001:0001c955       ?Maximum@Platform@@SAHHH@Z 1001d955 f   PlatWin.obj
 0001:0001c964       ?UpdateSystemCaret@Editor@@MAEXXZ 1001d964 f   Editor.obj
 0001:0001c964       ?StartDrag@Editor@@MAEXXZ  1001d964 f   Editor.obj
 0001:0001c964       ?ClaimSelection@ScintillaWin@@EAEXXZ 1001d964 f   ScintillaWin.obj
 0001:0001c964       __fpclear                  1001d964 f   LIBCMT:_fpinit_.obj
 0001:0001c964       ?DebugPrintf@Platform@@SAXPBDZZ 1001d964 f   PlatWin.obj
 0001:0001c964       ?ReconfigureScrollBars@Editor@@MAEXXZ 1001d964 f   Editor.obj
 0001:0001c964       __initp_misc_winxfltr      1001d964 f   LIBCMT:winxfltr.obj
 0001:0001c965       ?ShowAssertionPopUps@Platform@@SA_N_N@Z 1001d965 f   PlatWin.obj
 0001:0001c975       ?Clamp@Platform@@SAHHHH@Z  1001d975 f   PlatWin.obj
 0001:0001c98d       ?Platform_Finalise@@YAXXZ  1001d98d f   PlatWin.obj
 0001:0001c99e       ??0?$VarBuffer@_W$0CHBA@@@QAE@I@Z 1001d99e f i PlatWin.obj
 0001:0001c9dc       ??1?$VarBuffer@_W$0CHBA@@@QAE@XZ 1001d9dc f i PlatWin.obj
 0001:0001c9f5       ??0?$VarBuffer@H$0CHBA@@@QAE@I@Z 1001d9f5 f i PlatWin.obj
 0001:0001ca33       ??1?$VarBuffer@H$0CHBA@@@QAE@XZ 1001da33 f i PlatWin.obj
 0001:0001ca4c       ??_EFont@@UAEPAXI@Z        1001da4c f i PlatWin.obj
 0001:0001ca4c       ??_GFont@@UAEPAXI@Z        1001da4c f i PlatWin.obj
 0001:0001ca68       ?Release@Palette@@QAEXXZ   1001da68 f   PlatWin.obj
 0001:0001cac4       ?WantFind@Palette@@QAEXAAUColourPair@@_N@Z 1001dac4 f   PlatWin.obj
 0001:0001cbb7       ??0FontCached@@AAE@PBDHH_N1@Z 1001dbb7 f   PlatWin.obj
 0001:0001cc20       ??_GFontCached@@EAEPAXI@Z  1001dc20 f i PlatWin.obj
 0001:0001cc20       ??_EFontCached@@EAEPAXI@Z  1001dc20 f i PlatWin.obj
 0001:0001cc42       ?FindOrCreate@FontCached@@SAPAXPBDHH_N1@Z 1001dc42 f   PlatWin.obj
 0001:0001ccfc       ?Create@Font@@UAEXPBDHH_N11@Z 1001dcfc f   PlatWin.obj
 0001:0001cd26       ??1SurfaceImpl@@UAE@XZ     1001dd26 f   PlatWin.obj
 0001:0001cd3c       ?AlphaRectangle@SurfaceImpl@@UAEXVPRectangle@@HVColourAllocated@@H1HH@Z 1001dd3c f   PlatWin.obj
 0001:0001cfd5       ??0TextWide@@QAE@PBDH_NH@Z 1001dfd5 f i PlatWin.obj
 0001:0001d028       ??1TextWide@@QAE@XZ        1001e028 f i PlatWin.obj
 0001:0001d02d       ?WidthText@SurfaceImpl@@UAEHAAVFont@@PBDH@Z 1001e02d f   PlatWin.obj
 0001:0001d0e8       ?MeasureWidths@SurfaceImpl@@UAEXAAVFont@@PBDHPAH@Z 1001e0e8 f   PlatWin.obj
 0001:0001d420       ??_EListBox@@UAEPAXI@Z     1001e420 f i PlatWin.obj
 0001:0001d420       ??_GListBox@@UAEPAXI@Z     1001e420 f i PlatWin.obj
 0001:0001d43c       ??0ListBoxX@@QAE@XZ        1001e43c f i PlatWin.obj
 0001:0001d4db       ?SetDoubleClickAction@ListBoxX@@UAEXP6AXPAX@Z0@Z 1001e4db f i PlatWin.obj
 0001:0001d4ec       ??1ListBoxX@@UAE@XZ        1001e4ec f i PlatWin.obj
 0001:0001d53d       ??_EListBoxX@@UAEPAXI@Z    1001e53d f i PlatWin.obj
 0001:0001d53d       ??_GListBoxX@@UAEPAXI@Z    1001e53d f i PlatWin.obj
 0001:0001d559       ?Allocate@ListBox@@SAPAV1@XZ 1001e559 f   PlatWin.obj
 0001:0001d589       ?GetDesiredRect@ListBoxX@@UAE?AVPRectangle@@XZ 1001e589 f   PlatWin.obj
 0001:0001d70b       ?CaretFromEdge@ListBoxX@@UAEHXZ 1001e70b f   PlatWin.obj
 0001:0001d742       ?Select@ListBoxX@@UAEXH@Z  1001e742 f   PlatWin.obj
 0001:0001d778       ?Draw@ListBoxX@@QAEXPAUtagDRAWITEMSTRUCT@@@Z 1001e778 f   PlatWin.obj
 0001:0001d988       ?SetList@ListBoxX@@UAEXPBDDD@Z 1001e988 f   PlatWin.obj
 0001:0001da6a       ?ResizeToCursor@ListBoxX@@AAEXXZ 1001ea6a f   PlatWin.obj
 0001:0001dbba       ?WndProc@ListBoxX@@QAEJPAUHWND__@@IIJ@Z 1001ebba f   PlatWin.obj
 0001:0001ddfe       ?StaticWndProc@ListBoxX@@SGJPAUHWND__@@IIJ@Z 1001edfe f   PlatWin.obj
 0001:0001deaa       ?CreatePopUp@Menu@@QAEXXZ  1001eeaa f   PlatWin.obj
 0001:0001debc       ??0DynamicLibraryImpl@@QAE@PBD@Z 1001eebc f i PlatWin.obj
 0001:0001ded8       ??1DynamicLibraryImpl@@UAE@XZ 1001eed8 f i PlatWin.obj
 0001:0001def7       ?FindFunction@DynamicLibraryImpl@@UAEPAXPBD@Z 1001eef7 f i PlatWin.obj
 0001:0001df10       ?IsValid@DynamicLibraryImpl@@UAE_NXZ 1001ef10 f i PlatWin.obj
 0001:0001df19       ??_EDynamicLibraryImpl@@UAEPAXI@Z 1001ef19 f i PlatWin.obj
 0001:0001df19       ??_GDynamicLibraryImpl@@UAEPAXI@Z 1001ef19 f i PlatWin.obj
 0001:0001df35       ?Load@DynamicLibrary@@SAPAV1@PBD@Z 1001ef35 f   PlatWin.obj
 0001:0001df50       ?Platform_Initialise@@YAXPAX@Z 1001ef50 f   PlatWin.obj
 0001:0001dff9       ??0Palette@@QAE@XZ         1001eff9 f   PlatWin.obj
 0001:0001e047       ??1Palette@@QAE@XZ         1001f047 f   PlatWin.obj
 0001:0001e05e       ??_GSurfaceImpl@@UAEPAXI@Z 1001f05e f i PlatWin.obj
 0001:0001e05e       ??_ESurfaceImpl@@UAEPAXI@Z 1001f05e f i PlatWin.obj
 0001:0001e07a       ?DrawTextCommon@SurfaceImpl@@QAEXVPRectangle@@AAVFont@@HPBDHI@Z 1001f07a f   PlatWin.obj
 0001:0001e2b2       ?DrawTextNoClip@SurfaceImpl@@UAEXVPRectangle@@AAVFont@@HPBDHVColourAllocated@@3@Z 1001f2b2 f   PlatWin.obj
 0001:0001e2fa       ?DrawTextClipped@SurfaceImpl@@UAEXVPRectangle@@AAVFont@@HPBDHVColourAllocated@@3@Z 1001f2fa f   PlatWin.obj
 0001:0001e342       ?DrawTextTransparent@SurfaceImpl@@UAEXVPRectangle@@AAVFont@@HPBDHVColourAllocated@@@Z 1001f342 f   PlatWin.obj
 0001:0001e3aa       ?ContainsCharacter@Range@@QBE_NH@Z 1001f3aa f i PositionCache.obj
 0001:0001e3d5       ?Free@LineLayout@@QAEXXZ   1001f3d5 f   PositionCache.obj
 0001:0001e418       ?Invalidate@LineLayout@@QAEXW4validLevel@1@@Z 1001f418 f   PositionCache.obj
 0001:0001e427       ?LineStart@LineLayout@@QBEHH@Z 1001f427 f   PositionCache.obj
 0001:0001e44a       ?LineLastVisible@LineLayout@@QBEHH@Z 1001f44a f   PositionCache.obj
 0001:0001e498       ?InLine@LineLayout@@QBE_NHH@Z 1001f498 f   PositionCache.obj
 0001:0001e4d2       ?SetLineStart@LineLayout@@QAEXHH@Z 1001f4d2 f   PositionCache.obj
 0001:0001e546       ?SetBracesHighlight@LineLayout@@QAEXVRange@@QAHDH@Z 1001f546 f   PositionCache.obj
 0001:0001e5c5       ?RestoreBracesHighlight@LineLayout@@QAEXVRange@@QAH@Z 1001f5c5 f   PositionCache.obj
 0001:0001e61c       ?FindBefore@LineLayout@@QBEHHHH@Z 1001f61c f   PositionCache.obj
 0001:0001e64d       ?Allocate@LineLayoutCache@@AAEXH@Z 1001f64d f   PositionCache.obj
 0001:0001e6aa       ?Deallocate@LineLayoutCache@@QAEXXZ 1001f6aa f   PositionCache.obj
 0001:0001e6e3       ?Invalidate@LineLayoutCache@@QAEXW4validLevel@LineLayout@@@Z 1001f6e3 f   PositionCache.obj
 0001:0001e724       ?SetLevel@LineLayoutCache@@QAEXH@Z 1001f724 f   PositionCache.obj
 0001:0001e741       ?Dispose@LineLayoutCache@@QAEXPAVLineLayout@@@Z 1001f741 f   PositionCache.obj
 0001:0001e763       ?Insert@BreakFinder@@AAEXH@Z 1001f763 f   PositionCache.obj
 0001:0001e833       ??0BreakFinder@@QAE@PAVLineLayout@@HHH_NH@Z 1001f833 f   PositionCache.obj
 0001:0001e96f       ??1BreakFinder@@QAE@XZ     1001f96f f   PositionCache.obj
 0001:0001e979       ?First@BreakFinder@@QAEHXZ 1001f979 f   PositionCache.obj
 0001:0001e97d       ?Next@BreakFinder@@QAEHXZ  1001f97d f   PositionCache.obj
 0001:0001eac4       ??0PositionCacheEntry@@QAE@XZ 1001fac4 f   PositionCache.obj
 0001:0001ead7       ?Clear@PositionCacheEntry@@QAEXXZ 1001fad7 f   PositionCache.obj
 0001:0001eaf3       ?Retrieve@PositionCacheEntry@@QBE_NIPBDIPAH@Z 1001faf3 f   PositionCache.obj
 0001:0001eb47       ?Hash@PositionCacheEntry@@SAHIPBDI@Z 1001fb47 f   PositionCache.obj
 0001:0001eb82       ?NewerThan@PositionCacheEntry@@QAE_NABV1@@Z 1001fb82 f   PositionCache.obj
 0001:0001eb95       ?ResetClock@PositionCacheEntry@@QAEXXZ 1001fb95 f   PositionCache.obj
 0001:0001eba4       ?Clear@PositionCache@@QAEXXZ 1001fba4 f   PositionCache.obj
 0001:0001ebd3       ??1LineLayout@@UAE@XZ      1001fbd3 f   PositionCache.obj
 0001:0001ebde       ?Resize@LineLayout@@QAEXH@Z 1001fbde f   PositionCache.obj
 0001:0001ec35       ??0LineLayoutCache@@QAE@XZ 1001fc35 f   PositionCache.obj
 0001:0001ec60       ??1LineLayoutCache@@UAE@XZ 1001fc60 f   PositionCache.obj
 0001:0001ec6b       ?AllocateForLevel@LineLayoutCache@@AAEXHH@Z 1001fc6b f   PositionCache.obj
 0001:0001ecd3       ?Set@PositionCacheEntry@@QAEXIPBDIPAHI@Z 1001fcd3 f   PositionCache.obj
 0001:0001ed59       ??1PositionCacheEntry@@QAE@XZ 1001fd59 f   PositionCache.obj
 0001:0001ed5e       ??0PositionCache@@QAE@XZ   1001fd5e f   PositionCache.obj
 0001:0001edd0       ??_EPositionCacheEntry@@QAEPAXI@Z 1001fdd0 f i PositionCache.obj
 0001:0001ee19       ??1PositionCache@@QAE@XZ   1001fe19 f   PositionCache.obj
 0001:0001ee30       ?SetSize@PositionCache@@QAEXI@Z 1001fe30 f   PositionCache.obj
 0001:0001eea7       ?MeasureWidths@PositionCache@@QAEXPAVSurface@@AAVViewStyle@@IPBDIPAH@Z 1001fea7 f   PositionCache.obj
 0001:0001efb4       ??0LineLayout@@QAE@H@Z     1001ffb4 f   PositionCache.obj
 0001:0001f01a       ??_ELineLayout@@UAEPAXI@Z  1002001a f i PositionCache.obj
 0001:0001f01a       ??_GLineLayout@@UAEPAXI@Z  1002001a f i PositionCache.obj
 0001:0001f036       ??_ELineLayoutCache@@UAEPAXI@Z 10020036 f i PositionCache.obj
 0001:0001f036       ??_GLineLayoutCache@@UAEPAXI@Z 10020036 f i PositionCache.obj
 0001:0001f052       ?Retrieve@LineLayoutCache@@QAEPAVLineLayout@@HHHHHH@Z 10020052 f   PositionCache.obj
 0001:0001f197       ?HashString@PropSet@@KAIPBDI@Z 10020197 f i PropSet.obj
 0001:0001f1b8       ?CompareNCaseInsensitive@@YAHPBD0I@Z 100201b8 f   PropSet.obj
 0001:0001f21b       ?grow@SString@@AAE_NI@Z    1002021b f   PropSet.obj
 0001:0001f27f       ?append@SString@@QAEAAV1@PBDID@Z 1002027f f   PropSet.obj
 0001:0001f2ff       ?insert@SString@@QAEAAV1@IPBDI@Z 100202ff f   PropSet.obj
 0001:0001f378       ?remove@SString@@QAEXII@Z  10020378 f   PropSet.obj
 0001:0001f3c5       ?search@SString@@QBEHPBDI@Z 100203c5 f   PropSet.obj
 0001:0001f3f0       ?StringAllocate@SContainer@@SAPADPBDI@Z 100203f0 f   PropSet.obj
 0001:0001f438       ??0PropSet@@QAE@XZ         10020438 f   PropSet.obj
 0001:0001f44f       ?contains@VarChain@@QBE_NPBD@Z 1002044f f i PropSet.obj
 0001:0001f487       ?Clear@PropSet@@QAEXXZ     10020487 f   PropSet.obj
 0001:0001f4d4       ?ToString@PropSet@@QBEPADXZ 100204d4 f   PropSet.obj
 0001:0001f697       ?Clear@WordList@@QAEXXZ    10020697 f   PropSet.obj
 0001:0001f6c0       _cmpString                 100206c0 f   PropSet.obj
 0001:0001f6ec       ?InList@WordList@@QAE_NPBD@Z 100206ec f   PropSet.obj
 0001:0001f7db       ?InListAbbreviated@WordList@@QAE_NPBDD@Z 100207db f   PropSet.obj
 0001:0001f8fa       ??0SString@@QAE@PBD@Z      100208fa f i PropSet.obj
 0001:0001f94a       ??0SString@@QAE@PBDII@Z    1002094a f i PropSet.obj
 0001:0001f99a       ?assign@SString@@AAEAAV1@PBDI@Z 1002099a f   PropSet.obj
 0001:0001fa14       ??1PropSet@@QAE@XZ         10020a14 f   PropSet.obj
 0001:0001fa20       ?Set@PropSet@@QAEXPBD0HH@Z 10020a20 f   PropSet.obj
 0001:0001fb0c       ?Get@PropSet@@QBE?AVSString@@PBD@Z 10020b0c f   PropSet.obj
 0001:0001fcfa       ?GetExpanded@PropSet@@QBE?AVSString@@PBD@Z 10020cfa f   PropSet.obj
 0001:0001fd4b       ?GetInt@PropSet@@QBEHPBDH@Z 10020d4b f   PropSet.obj
 0001:0001fd9e       ?Set@WordList@@QAEXPBD@Z   10020d9e f   PropSet.obj
 0001:0001fdcc       ?Init@RESearch@@AAEXXZ     10020dcc f   RESearch.obj
 0001:0001fdf1       ?Clear@RESearch@@AAEXXZ    10020df1 f   RESearch.obj
 0001:0001fe15       ?GrabMatches@RESearch@@QAE_NAAVCharacterIndexer@@@Z 10020e15 f   RESearch.obj
 0001:0001fe8a       ?ChSet@RESearch@@AAEXE@Z   10020e8a f   RESearch.obj
 0001:0001fea9       ?ChSetWithCase@RESearch@@AAEXE_N@Z 10020ea9 f   RESearch.obj
 0001:0001fef6       ?escapeValue@@YA?BEE@Z     10020ef6 f   RESearch.obj
 0001:0001ffa6       ?GetBackslashExpression@RESearch@@AAEHPBDAAH@Z 10020fa6 f   RESearch.obj
 0001:00020146       ?Compile@RESearch@@QAEPBDPBDH_N1@Z 10021146 f   RESearch.obj
 0001:0002064f       ?PMatch@RESearch@@AAEHAAVCharacterIndexer@@HHPAD@Z 1002164f f   RESearch.obj
 0001:000208ab       ??0RESearch@@QAE@PAVCharClassify@@@Z 100218ab f   RESearch.obj
 0001:000208c3       ??1RESearch@@QAE@XZ        100218c3 f   RESearch.obj
 0001:000208c8       ?Execute@RESearch@@QAEHAAVCharacterIndexer@@HH@Z 100218c8 f   RESearch.obj
 0001:00020973       ?RunFromPosition@RunStyles@@QAEHH@Z 10021973 f   RunStyles.obj
 0001:000209a8       ??_G?$SplitVector@H@@QAEPAXI@Z 100219a8 f i RunStyles.obj
 0001:000209a8       ??_GSplitVectorWithRangeAdd@@QAEPAXI@Z 100219a8 f i CellBuffer.obj
 0001:000209ca       ?Length@RunStyles@@QBEHXZ  100219ca f   RunStyles.obj
 0001:000209da       ?ValueAt@RunStyles@@QBEHH@Z 100219da f   RunStyles.obj
 0001:000209f5       ?StartRun@RunStyles@@QAEHH@Z 100219f5 f   RunStyles.obj
 0001:00020a0f       ?EndRun@RunStyles@@QAEHH@Z 10021a0f f   RunStyles.obj
 0001:00020a2a       ?SplitRun@RunStyles@@QAEHH@Z 10021a2a f   RunStyles.obj
 0001:00020a78       ?RemoveRun@RunStyles@@QAEXH@Z 10021a78 f   RunStyles.obj
 0001:00020a98       ?RemoveRunIfEmpty@RunStyles@@QAEXH@Z 10021a98 f   RunStyles.obj
 0001:00020adc       ?RemoveRunIfSameAsPrevious@RunStyles@@QAEXH@Z 10021adc f   RunStyles.obj
 0001:00020b22       ??0RunStyles@@QAE@XZ       10021b22 f   RunStyles.obj
 0001:00020b96       ??1RunStyles@@QAE@XZ       10021b96 f   RunStyles.obj
 0001:00020bc6       ?FillRange@RunStyles@@QAE_NAAHH0@Z 10021bc6 f   RunStyles.obj
 0001:00020cc2       ?SetValueAt@RunStyles@@QAEXHH@Z 10021cc2 f   RunStyles.obj
 0001:00020ce1       ?InsertSpace@RunStyles@@QAEXHH@Z 10021ce1 f   RunStyles.obj
 0001:00020d63       ?DeleteRange@RunStyles@@QAEXHH@Z 10021d63 f   RunStyles.obj
 0001:00020deb       ??0Accessor@@QAE@XZ        10021deb f i ScintillaBase.obj
 0001:00020e0c       ??0DocumentAccessor@@QAE@PAVDocument@@AAVPropSet@@PAX@Z 10021e0c f i ScintillaBase.obj
 0001:00020e6f       ?GetPropertyInt@DocumentAccessor@@UAEHPBDH@Z 10021e6f f i ScintillaBase.obj
 0001:00020e7a       ?GetProperties@DocumentAccessor@@UAEPADXZ 10021e7a f i ScintillaBase.obj
 0001:00020e85       ?SetFlags@DocumentAccessor@@UAEXDD@Z 10021e85 f i ScintillaBase.obj
 0001:00020e9c       ?GetStartSegment@DocumentAccessor@@UAEIXZ 10021e9c f i ScintillaBase.obj
 0001:00020ea3       ??_GDocumentAccessor@@UAEPAXI@Z 10021ea3 f i ScintillaBase.obj
 0001:00020ea3       ??_EDocumentAccessor@@UAEPAXI@Z 10021ea3 f i ScintillaBase.obj
 0001:00020ebf       ??0ScintillaBase@@IAE@XZ   10021ebf f   ScintillaBase.obj
 0001:00020f98       ?Finalise@ScintillaBase@@MAEXXZ 10021f98 f   ScintillaBase.obj
 0001:00020fac       ?RefreshColourPalette@ScintillaBase@@MAEXAAVPalette@@_N@Z 10021fac f   ScintillaBase.obj
 0001:00020fd3       ?Command@ScintillaBase@@IAEXH@Z 10021fd3 f   ScintillaBase.obj
 0001:00021042       ?AutoCompleteCancel@ScintillaBase@@IAEXXZ 10022042 f   ScintillaBase.obj
 0001:0002109e       ?AutoCompleteMove@ScintillaBase@@IAEXH@Z 1002209e f   ScintillaBase.obj
 0001:000210a9       ?AutoCompleteMoveToCurrentWord@ScintillaBase@@IAEXXZ 100220a9 f   ScintillaBase.obj
 0001:00021149       ?AutoCompleteCharacterDeleted@ScintillaBase@@IAEXXZ 10022149 f   ScintillaBase.obj
 0001:000211c0       ?AutoCompleteCompleted@ScintillaBase@@IAEXXZ 100221c0 f   ScintillaBase.obj
 0001:000213a6       ?AutoCompleteGetCurrent@ScintillaBase@@IAEHXZ 100223a6 f   ScintillaBase.obj
 0001:000213c9       ?CallTipShow@ScintillaBase@@IAEXVPoint@@PBD@Z 100223c9 f   ScintillaBase.obj
 0001:000214db       ?CallTipClick@ScintillaBase@@IAEXXZ 100224db f   ScintillaBase.obj
 0001:00021520       ?ContextMenu@ScintillaBase@@IAEXVPoint@@@Z 10022520 f   ScintillaBase.obj
 0001:000216b2       ?CancelModes@ScintillaBase@@MAEXXZ 100226b2 f   ScintillaBase.obj
 0001:000216cd       ?ButtonDown@ScintillaBase@@MAEXVPoint@@I_N11@Z 100226cd f   ScintillaBase.obj
 0001:000216f6       ?SetLexer@ScintillaBase@@IAEXK@Z 100226f6 f   ScintillaBase.obj
 0001:00021724       ?SetLexerLanguage@ScintillaBase@@IAEXPBD@Z 10022724 f   ScintillaBase.obj
 0001:00021763       ?Colourise@ScintillaBase@@IAEXHH@Z 10022763 f   ScintillaBase.obj
 0001:000218cb       ?NotifyStyleToNeeded@ScintillaBase@@MAEXH@Z 100228cb f   ScintillaBase.obj
 0001:00021926       ??1ScintillaBase@@MAE@XZ   10022926 f   ScintillaBase.obj
 0001:000219be       ?KeyCommand@ScintillaBase@@MAEHI@Z 100229be f   ScintillaBase.obj
 0001:00021b16       ?AutoCompleteDoubleClick@ScintillaBase@@KAXPAX@Z 10022b16 f   ScintillaBase.obj
 0001:00021b1f       ?AutoCompleteStart@ScintillaBase@@IAEXHPBD@Z 10022b1f f   ScintillaBase.obj
 0001:00021ecd       ?AutoCompleteCharacterAdded@ScintillaBase@@IAEXD@Z 10022ecd f   ScintillaBase.obj
 0001:00021f11       ?WndProc@ScintillaBase@@UAEJIKJ@Z 10022f11 f   ScintillaBase.obj
 0001:00022499       ??_GScintillaBase@@MAEPAXI@Z 10023499 f i ScintillaBase.obj
 0001:00022499       ??_EScintillaBase@@MAEPAXI@Z 10023499 f i ScintillaBase.obj
 0001:000224b5       ?AddCharUTF@ScintillaBase@@MAEXPADI_N@Z 100234b5 f   ScintillaBase.obj
 0001:00022529       _IsEqualGUID               10023529 f i ScintillaWin.obj
 0001:00022541       ?DragIsRectangularOK@ScintillaWin@@QAE_NG@Z 10023541 f i ScintillaWin.obj
 0001:0002255d       ??1ScintillaWin@@EAE@XZ    1002355d f   ScintillaWin.obj
 0001:00022568       ?Initialise@ScintillaWin@@EAEXXZ 10023568 f   ScintillaWin.obj
 0001:0002257b       ?MainHWND@ScintillaWin@@AAEPAUHWND__@@XZ 1002357b f   ScintillaWin.obj
 0001:0002257b       ?Length@CellBuffer@@QBEHXZ 1002357b f   CellBuffer.obj
 0001:0002257f       ?DragThreshold@ScintillaWin@@EAE_NVPoint@@0@Z 1002357f f   ScintillaWin.obj
 0001:000225c7       ?StartDrag@ScintillaWin@@EAEXXZ 100235c7 f   ScintillaWin.obj
 0001:0002278c       ?HandleComposition@ScintillaWin@@AAEJKJ@Z 1002378c f   ScintillaWin.obj
 0001:00022a79       ?ValidCodePage@ScintillaWin@@EBE_NH@Z 10023a79 f   ScintillaWin.obj
 0001:00022ab5       ?DefWndProc@ScintillaWin@@EAEJIKJ@Z 10023ab5 f   ScintillaWin.obj
 0001:00022ad0       ?SetTicking@ScintillaWin@@EAEX_N@Z 10023ad0 f   ScintillaWin.obj
 0001:00022b32       ?SetIdle@ScintillaWin@@EAE_N_N@Z 10023b32 f   ScintillaWin.obj
 0001:00022b99       ?SetMouseCapture@ScintillaWin@@EAEX_N@Z 10023b99 f   ScintillaWin.obj
 0001:00022bcd       ?HaveMouseCapture@ScintillaWin@@EAE_NXZ 10023bcd f   ScintillaWin.obj
 0001:00022bd4       ?PaintContains@ScintillaWin@@EAE_NVPRectangle@@@Z 10023bd4 f   ScintillaWin.obj
 0001:00022c73       ?ScrollText@ScintillaWin@@EAEXH@Z 10023c73 f   ScintillaWin.obj
 0001:00022ca7       ?SetScrollInfo@ScintillaWin@@EAEHHPBUtagSCROLLINFO@@H@Z 10023ca7 f   ScintillaWin.obj
 0001:00022cc2       ?GetScrollInfo@ScintillaWin@@EAE_NHPAUtagSCROLLINFO@@@Z 10023cc2 f   ScintillaWin.obj
 0001:00022cde       ?ChangeScrollPos@ScintillaWin@@AAEXHH@Z 10023cde f   ScintillaWin.obj
 0001:00022d45       ?SetVerticalScrollPos@ScintillaWin@@EAEXXZ 10023d45 f   ScintillaWin.obj
 0001:00022d53       ?SetHorizontalScrollPos@ScintillaWin@@EAEXXZ 10023d53 f   ScintillaWin.obj
 0001:00022d61       ?ModifyScrollBars@ScintillaWin@@EAE_NHH@Z 10023d61 f   ScintillaWin.obj
 0001:00022e99       ?NotifyChange@ScintillaWin@@EAEXXZ 10023e99 f   ScintillaWin.obj
 0001:00022ecc       ?NotifyFocus@ScintillaWin@@EAEX_N@Z 10023ecc f   ScintillaWin.obj
 0001:00022f14       ?GetCtrlID@ScintillaWin@@EAEHXZ 10023f14 f   ScintillaWin.obj
 0001:00022f1e       ?NotifyParent@ScintillaWin@@EAEXUSCNotification@@@Z 10023f1e f   ScintillaWin.obj
 0001:00022f5b       ?NotifyDoubleClick@ScintillaWin@@EAEXVPoint@@_N11@Z 10023f5b f   ScintillaWin.obj
 0001:00022fa7       ?CanPaste@ScintillaWin@@EAE_NXZ 10023fa7 f   ScintillaWin.obj
 0001:00022fe4       ??0GlobalMemory@@QAE@PAX@Z 10023fe4 f i ScintillaWin.obj
 0001:00023005       ?Allocate@GlobalMemory@@QAEXI@Z 10024005 f i ScintillaWin.obj
 0001:00023028       ?Unlock@GlobalMemory@@QAEPAXXZ 10024028 f i ScintillaWin.obj
 0001:00023041       ?InsertPasteText@ScintillaWin@@AAEXPBDHH_N1@Z 10024041 f   ScintillaWin.obj
 0001:00023162       ?Paste@ScintillaWin@@EAEXXZ 10024162 f   ScintillaWin.obj
 0001:000233dc       ?AddToPopUp@ScintillaWin@@EAEXPBDH_N@Z 100243dc f   ScintillaWin.obj
 0001:00023413       ?FormatEnumerator_AddRef@@YGKPAVFormatEnumerator@@@Z 10024413 f   ScintillaWin.obj
 0001:00023420       ?FormatEnumerator_Release@@YGKPAVFormatEnumerator@@@Z 10024420 f   ScintillaWin.obj
 0001:0002343a       ?FormatEnumerator_Next@@YGJPAVFormatEnumerator@@KPAUtagFORMATETC@@PAK@Z 1002443a f   ScintillaWin.obj
 0001:0002349d       ?FormatEnumerator_Skip@@YGJPAVFormatEnumerator@@K@Z 1002449d f   ScintillaWin.obj
 0001:000234ad       ?FormatEnumerator_Reset@@YGJPAVFormatEnumerator@@@Z 100244ad f   ScintillaWin.obj
 0001:000234ba       ??0FormatEnumerator@@QAE@HQAGH@Z 100244ba f   ScintillaWin.obj
 0001:000234f4       ?DropSource_QueryContinueDrag@@YGJPAVDropSource@@HK@Z 100244f4 f   ScintillaWin.obj
 0001:0002351c       ?DropSource_GiveFeedback@@YGJPAVDropSource@@K@Z 1002451c f   ScintillaWin.obj
 0001:00023524       ??0DropSource@@QAE@XZ      10024524 f   ScintillaWin.obj
 0001:00023531       ?DataObject_GetDataHere@@YGJPAVDataObject@@PAUtagFORMATETC@@PAUtagSTGMEDIUM@@@Z 10024531 f   ScintillaWin.obj
 0001:00023539       ?DataObject_QueryGetData@@YGJPAVDataObject@@PAUtagFORMATETC@@@Z 10024539 f   ScintillaWin.obj
 0001:000235aa       ?DataObject_GetCanonicalFormatEtc@@YGJPAVDataObject@@PAUtagFORMATETC@@1@Z 100245aa f   ScintillaWin.obj
 0001:000235de       ?DataObject_SetData@@YGJPAVDataObject@@PAUtagFORMATETC@@PAUtagSTGMEDIUM@@H@Z 100245de f   ScintillaWin.obj
 0001:000235e6       ?DataObject_DAdvise@@YGJPAVDataObject@@PAUtagFORMATETC@@KPAUIAdviseSink@@PAK@Z 100245e6 f   ScintillaWin.obj
 0001:000235ee       ?DataObject_DUnadvise@@YGJPAVDataObject@@K@Z 100245ee f   ScintillaWin.obj
 0001:000235ee       ?DataObject_EnumDAdvise@@YGJPAVDataObject@@PAPAUIEnumSTATDATA@@@Z 100245ee f   ScintillaWin.obj
 0001:000235f6       ??0DataObject@@QAE@XZ      100245f6 f   ScintillaWin.obj
 0001:00023603       ??0DropTarget@@QAE@XZ      10024603 f   ScintillaWin.obj
 0001:00023610       ?ImeStartComposition@ScintillaWin@@AAEXXZ 10024610 f   ScintillaWin.obj
 0001:0002378e       ?ImeEndComposition@ScintillaWin@@AAEXXZ 1002478e f   ScintillaWin.obj
 0001:00023793       ?AddCharBytes@ScintillaWin@@AAEXDD@Z 10024793 f   ScintillaWin.obj
 0001:00023856       ?GetIntelliMouseParameters@ScintillaWin@@AAEXXZ 10024856 f   ScintillaWin.obj
 0001:0002386a       ?CopyToClipboard@ScintillaWin@@EAEXABVSelectionText@@@Z 1002486a f   ScintillaWin.obj
 0001:000239d0       ?ScrollMessage@ScintillaWin@@AAEXI@Z 100249d0 f   ScintillaWin.obj
 0001:00023a84       ?HorizontalScrollMessage@ScintillaWin@@AAEXI@Z 10024a84 f   ScintillaWin.obj
 0001:00023b50       ?RealizeWindowPalette@ScintillaWin@@AAEX_N@Z 10024b50 f   ScintillaWin.obj
 0001:00023be2       ?FullPaintDC@ScintillaWin@@AAEXPAUHDC__@@@Z 10024be2 f   ScintillaWin.obj
 0001:00023c98       ?IsCompatibleDC@ScintillaWin@@AAE_NPAUHDC__@@@Z 10024c98 f   ScintillaWin.obj
 0001:00023d1e       ?EffectFromState@ScintillaWin@@AAEKK@Z 10024d1e f   ScintillaWin.obj
 0001:00023d42       ?QueryInterface@ScintillaWin@@QAGJABU_GUID@@PAPAX@Z 10024d42 f   ScintillaWin.obj
 0001:00023dce       ?AddRef@ScintillaWin@@QAGKXZ 10024dce f   ScintillaWin.obj
 0001:00023dce       ?Release@ScintillaWin@@QAGKXZ 10024dce f   ScintillaWin.obj
 0001:00023dd4       ?DragEnter@ScintillaWin@@QAGJPAUIDataObject@@KU_POINTL@@PAK@Z 10024dd4 f   ScintillaWin.obj
 0001:00023e74       ?DragOver@ScintillaWin@@QAGJKU_POINTL@@PAK@Z 10024e74 f   ScintillaWin.obj
 0001:00023eea       ?DragLeave@ScintillaWin@@QAGJXZ 10024eea f   ScintillaWin.obj
 0001:00023efa       ?Drop@ScintillaWin@@QAGJPAUIDataObject@@KU_POINTL@@PAK@Z 10024efa f   ScintillaWin.obj
 0001:00024138       ?GetData@ScintillaWin@@QAGJPAUtagFORMATETC@@PAUtagSTGMEDIUM@@@Z 10025138 f   ScintillaWin.obj
 0001:00024232       ?Unregister@ScintillaWin@@SA_NXZ 10025232 f   ScintillaWin.obj
 0001:00024264       ?HasCaretSizeChanged@ScintillaWin@@AAE_NXZ 10025264 f   ScintillaWin.obj
 0001:0002428e       ?CreateSystemCaret@ScintillaWin@@AAEHXZ 1002528e f   ScintillaWin.obj
 0001:00024339       ?DestroySystemCaret@ScintillaWin@@AAEHXZ 10025339 f   ScintillaWin.obj
 0001:00024379       ?CTWndProc@ScintillaWin@@CGJPAUHWND__@@IIJ@Z 10025379 f   ScintillaWin.obj
 0001:00024505       ?DirectFunction@ScintillaWin@@CAJPAV1@IKJ@Z 10025505 f   ScintillaWin.obj
 0001:0002451e       _Scintilla_DirectFunction@16 1002551e f   ScintillaWin.obj
 0001:00024539       ?Scintilla_ReleaseResources@@YA_NXZ 10025539 f   ScintillaWin.obj
 0001:0002454a       ??_EScintillaWin@@EAEPAXI@Z 1002554a f i ScintillaWin.obj
 0001:0002454a       ??_GScintillaWin@@EAEPAXI@Z 1002554a f i ScintillaWin.obj
 0001:00024566       ??0ScintillaWin@@AAE@PAUHWND__@@@Z 10025566 f   ScintillaWin.obj
 0001:00024629       ?Finalise@ScintillaWin@@EAEXXZ 10025629 f   ScintillaWin.obj
 0001:0002466f       ?UpdateSystemCaret@ScintillaWin@@EAEXXZ 1002566f f   ScintillaWin.obj
 0001:000246b5       ?CreateCallTipWindow@ScintillaWin@@EAEXVPRectangle@@@Z 100256b5 f   ScintillaWin.obj
 0001:00024719       ?FormatEnumerator_QueryInterface@@YGJPAVFormatEnumerator@@ABU_GUID@@PAPAX@Z 10025719 f   ScintillaWin.obj
 0001:0002476b       ?FormatEnumerator_Clone@@YGJPAVFormatEnumerator@@PAPAUIEnumFORMATETC@@@Z 1002576b f   ScintillaWin.obj
 0001:000247a2       ?DropSource_QueryInterface@@YGJPAVDropSource@@ABU_GUID@@PAPAX@Z 100257a2 f   ScintillaWin.obj
 0001:000247a2       ?DropTarget_QueryInterface@@YGJPAVDropTarget@@ABU_GUID@@PAPAX@Z 100257a2 f   ScintillaWin.obj
 0001:000247a2       ?DataObject_QueryInterface@@YGJPAVDataObject@@ABU_GUID@@PAPAX@Z 100257a2 f   ScintillaWin.obj
 0001:000247b9       ?DataObject_Release@@YGKPAVDataObject@@@Z 100257b9 f   ScintillaWin.obj
 0001:000247b9       ?DropSource_AddRef@@YGKPAVDropSource@@@Z 100257b9 f   ScintillaWin.obj
 0001:000247b9       ?DropSource_Release@@YGKPAVDropSource@@@Z 100257b9 f   ScintillaWin.obj
 0001:000247b9       ?DropTarget_Release@@YGKPAVDropTarget@@@Z 100257b9 f   ScintillaWin.obj
 0001:000247b9       ?DataObject_AddRef@@YGKPAVDataObject@@@Z 100257b9 f   ScintillaWin.obj
 0001:000247b9       ?DropTarget_AddRef@@YGKPAVDropTarget@@@Z 100257b9 f   ScintillaWin.obj
 0001:000247c8       ?DataObject_GetData@@YGJPAVDataObject@@PAUtagFORMATETC@@PAUtagSTGMEDIUM@@@Z 100257c8 f   ScintillaWin.obj
 0001:000247df       ?DataObject_EnumFormatEtc@@YGJPAVDataObject@@KPAPAUIEnumFORMATETC@@@Z 100257df f   ScintillaWin.obj
 0001:0002485c       ?DropTarget_DragEnter@@YGJPAVDropTarget@@PAUIDataObject@@KU_POINTL@@PAK@Z 1002585c f   ScintillaWin.obj
 0001:0002487d       ?DropTarget_DragOver@@YGJPAVDropTarget@@KU_POINTL@@PAK@Z 1002587d f   ScintillaWin.obj
 0001:0002489b       ?DropTarget_DragLeave@@YGJPAVDropTarget@@@Z 1002589b f   ScintillaWin.obj
 0001:000248aa       ?DropTarget_Drop@@YGJPAVDropTarget@@PAUIDataObject@@KU_POINTL@@PAK@Z 100258aa f   ScintillaWin.obj
 0001:000248cb       ?FullPaint@ScintillaWin@@AAEXXZ 100258cb f   ScintillaWin.obj
 0001:000248f7       ?SWndProc@ScintillaWin@@CGJPAUHWND__@@IIJ@Z 100258f7 f   ScintillaWin.obj
 0001:000249a9       ?WndPaint@ScintillaWin@@AAEJK@Z 100259a9 f   ScintillaWin.obj
 0001:00024b01       ?WndProc@ScintillaWin@@UAEJIKJ@Z 10025b01 f   ScintillaWin.obj
 0001:0002561a       ?Copy@ScintillaWin@@EAEXXZ 1002661a f   ScintillaWin.obj
 0001:00025674       ?CopyAllowLine@Editor@@MAEXXZ 10026674 f   Editor.obj
 0001:00025674       ?CopyAllowLine@ScintillaWin@@EAEXXZ 10026674 f   ScintillaWin.obj
 0001:000256c1       ?Register@ScintillaWin@@SA_NPAUHINSTANCE__@@@Z 100266c1 f   ScintillaWin.obj
 0001:00025791       ?Scintilla_RegisterClasses@@YA_NPAX@Z 10026791 f   ScintillaWin.obj
 0001:000257b1       _DllMain@12                100267b1 f   ScintillaWin.obj
 0001:000257dc       ??1Style@@QAE@XZ           100267dc f   Style.obj
 0001:0002581b       ?Clear@Style@@QAEXVColourDesired@@0HPBDH_N222W4ecaseForced@1@222@Z 1002681b f   Style.obj
 0001:0002588b       ?ClearTo@Style@@QAEXABV1@@Z 1002688b f   Style.obj
 0001:000258cb       ?EquivalentFontTo@Style@@QBE_NPBV1@@Z 100268cb f   Style.obj
 0001:0002591a       ?Realise@Style@@QAEXAAVSurface@@HPAV1@_N@Z 1002691a f   Style.obj
 0001:00025a01       ??0Style@@QAE@XZ           10026a01 f   Style.obj
 0001:00025a57       ??4Style@@QAEAAV0@ABV0@@Z  10026a57 f   Style.obj
 0001:00025b21       ?GetCurrentLowered@StyleContext@@QAEXPADI@Z 10026b21 f   StyleContext.obj
 0001:00025b47       ?UTF8Length@@YAIPB_WI@Z    10026b47 f   UniConversion.obj
 0001:00025b97       ?UTF8FromUTF16@@YAXPB_WIPADI@Z 10026b97 f   UniConversion.obj
 0001:00025c68       ?UTF16Length@@YAIPBDI@Z    10026c68 f   UniConversion.obj
 0001:00025ca3       ?UTF16FromUTF8@@YAIPBDIPA_WI@Z 10026ca3 f   UniConversion.obj
 0001:00025d8a       ??0MarginStyle@@QAE@XZ     10026d8a f   ViewStyle.obj
 0001:00025d9a       ??0FontNames@@QAE@XZ       10026d9a f   ViewStyle.obj
 0001:00025dc2       ?Clear@FontNames@@QAEXXZ   10026dc2 f   ViewStyle.obj
 0001:00025de5       ?Save@FontNames@@QAEPBDPBD@Z 10026de5 f   ViewStyle.obj
 0001:00025ea7       ??_EStyle@@QAEPAXI@Z       10026ea7 f i ViewStyle.obj
 0001:00025ef0       ?RefreshColourPalette@ViewStyle@@QAEXAAVPalette@@_N@Z 10026ef0 f   ViewStyle.obj
 0001:0002605a       ?Refresh@ViewStyle@@QAEXAAVSurface@@@Z 1002705a f   ViewStyle.obj
 0001:000261ea       ?AllocStyles@ViewStyle@@QAEXI@Z 100271ea f   ViewStyle.obj
 0001:000262da       ?EnsureStyle@ViewStyle@@QAEXI@Z 100272da f   ViewStyle.obj
 0001:000262f4       ?SetStyleFontName@ViewStyle@@QAEXHPBD@Z 100272f4 f   ViewStyle.obj
 0001:00026312       ?ProtectionActive@ViewStyle@@QBE_NXZ 10027312 f   ViewStyle.obj
 0001:00026319       ?ValidStyle@ViewStyle@@QBE_NI@Z 10027319 f   ViewStyle.obj
 0001:00026327       ??0LineMarker@@QAE@XZ      10027327 f i ViewStyle.obj
 0001:0002634f       ??1LineMarker@@QAE@XZ      1002734f f i ViewStyle.obj
 0001:00026367       ??4LineMarker@@QAEAAV0@ABV0@@Z 10027367 f i ViewStyle.obj
 0001:000263ac       ??1FontNames@@QAE@XZ       100273ac f   ViewStyle.obj
 0001:000263c1       ??1ViewStyle@@QAE@XZ       100273c1 f   ViewStyle.obj
 0001:00026412       ?ResetDefaultStyle@ViewStyle@@QAEXXZ 10027412 f   ViewStyle.obj
 0001:00026454       ?ClearStyles@ViewStyle@@QAEXXZ 10027454 f   ViewStyle.obj
 0001:000264b8       ?Init@ViewStyle@@QAEXI@Z   100274b8 f   ViewStyle.obj
 0001:0002676a       ??0ViewStyle@@QAE@XZ       1002776a f   ViewStyle.obj
 0001:00026887       ??0ViewStyle@@QAE@ABV0@@Z  10027887 f   ViewStyle.obj
 0001:00026cab       ?ValueOfHex@ColourDesired@@SAID@Z 10027cab f i XPM.obj
 0001:00026ce5       ?Set@ColourDesired@@QAEXPBD@Z 10027ce5 f i XPM.obj
 0001:00026da2       ?ColourFromCode@XPM@@AAE?AVColourAllocated@@H@Z 10027da2 f   XPM.obj
 0001:00026db6       ?FillRun@XPM@@AAEXPAVSurface@@HHHH@Z 10027db6 f   XPM.obj
 0001:00026e09       ?Clear@XPM@@QAEXXZ         10027e09 f   XPM.obj
 0001:00026e41       ?RefreshColourPalette@XPM@@QAEXAAVPalette@@_N@Z 10027e41 f   XPM.obj
 0001:00026e7f       ?CopyDesiredColours@XPM@@QAEXXZ 10027e7f f   XPM.obj
 0001:00026eae       ?Draw@XPM@@QAEXPAVSurface@@AAVPRectangle@@@Z 10027eae f   XPM.obj
 0001:00026f9f       ?LinesFormFromTextForm@XPM@@SAPAPBDPBD@Z 10027f9f f   XPM.obj
 0001:0002704e       ??0XPMSet@@QAE@XZ          1002804e f   XPM.obj
 0001:00027063       ?Get@XPMSet@@QAEPAVXPM@@H@Z 10028063 f   XPM.obj
 0001:00027090       ?GetHeight@XPMSet@@QAEHXZ  10028090 f   XPM.obj
 0001:000270c4       ?GetWidth@XPMSet@@QAEHXZ   100280c4 f   XPM.obj
 0001:000270f8       ??1XPM@@QAE@XZ             100280f8 f   XPM.obj
 0001:000270fd       ?Init@XPM@@QAEXPBQBD@Z     100280fd f   XPM.obj
 0001:000272ca       ?Clear@XPMSet@@QAEXXZ      100282ca f   XPM.obj
 0001:00027312       ?Init@XPM@@QAEXPBD@Z       10028312 f   XPM.obj
 0001:00027372       ??1XPMSet@@QAE@XZ          10028372 f   XPM.obj
 0001:00027377       ??0XPM@@QAE@PBD@Z          10028377 f   XPM.obj
 0001:00027397       ?Add@XPMSet@@QAEXHPBD@Z    10028397 f   XPM.obj
 0001:00027476       _ImmReleaseContext@8       10028476 f   imm32:IMM32.dll
 0001:0002747c       _ImmSetCompositionWindow@8 1002847c f   imm32:IMM32.dll
 0001:00027482       _ImmGetCompositionStringW@16 10028482 f   imm32:IMM32.dll
 0001:00027488       _ImmGetContext@4           10028488 f   imm32:IMM32.dll
 0001:0002748e       _ImmSetCompositionFontA@8  1002848e f   imm32:IMM32.dll
 0001:00027494       _ImmNotifyIME@16           10028494 f   imm32:IMM32.dll
 0001:000274b0       _strchr                    100284b0 f   LIBCMT:strchr.obj
 0001:000274b6       ___from_strstr_to_strchr   100284b6     LIBCMT:strchr.obj
 0001:00027570       _strncpy                   10028570 f   LIBCMT:strncpy.obj
 0001:00027694       _strncmp                   10028694 f   LIBCMT:strncmp.obj
 0001:00027760       _strlen                    10028760 f   LIBCMT:strlen.obj
 0001:000277eb       @__security_check_cookie@4 100287eb f   LIBCMT:secchk.obj
 0001:000277fa       ??1type_info@@UAE@XZ       100287fa f   LIBCMT:typinfo.obj
 0001:0002780a       ??_Gtype_info@@UAEPAXI@Z   1002880a f i LIBCMT:typinfo.obj
 0001:0002780a       ??_Etype_info@@UAEPAXI@Z   1002880a f i LIBCMT:typinfo.obj
 0001:0002782b       ??8type_info@@QBE_NABV0@@Z 1002882b f   LIBCMT:typinfo.obj
 0001:0002784b       ??3@YAXPAX@Z               1002884b f   LIBCMT:delete.obj
 0001:00027856       ?_JumpToContinuation@@YGXPAXPAUEHRegistrationNode@@@Z 10028856 f   LIBCMT:_trnsctrl_.obj
 0001:00027888       ?_CallMemberFunction1@@YGXPAX00@Z 10028888 f   LIBCMT:_trnsctrl_.obj
 0001:00027888       ?_CallMemberFunction2@@YGXPAX00H@Z 10028888 f   LIBCMT:_trnsctrl_.obj
 0001:00027888       ?_CallMemberFunction0@@YGXPAX0@Z 10028888 f   LIBCMT:_trnsctrl_.obj
 0001:0002788f       ?_UnwindNestedFrames@@YGXPAUEHRegistrationNode@@PAUEHExceptionRecord@@@Z 1002888f f   LIBCMT:_trnsctrl_.obj
 0001:000278e3       ___CxxFrameHandler3        100288e3 f   LIBCMT:_trnsctrl_.obj
 0001:0002794c       ?_CallSETranslator@@YAHPAUEHExceptionRecord@@PAUEHRegistrationNode@@PAX2PBU_s_FuncInfo@@H1@Z 1002894c f   LIBCMT:_trnsctrl_.obj
 0001:00027ac2       ?_GetRangeOfTrysToCheck@@YAPBU_s_TryBlockMapEntry@@PBU_s_FuncInfo@@HHPAI1@Z 10028ac2 f   LIBCMT:_trnsctrl_.obj
 0001:00027b37       __CreateFrameInfo          10028b37 f   LIBCMT:_trnsctrl_.obj
 0001:00027b63       __IsExceptionObjectToBeDestroyed 10028b63 f   LIBCMT:_trnsctrl_.obj
 0001:00027b8a       __FindAndUnlinkFrame       10028b8a f   LIBCMT:_trnsctrl_.obj
 0001:00027bdc       ?_CallCatchBlock2@@YAPAXPAUEHRegistrationNode@@PBU_s_FuncInfo@@PAXHK@Z 10028bdc f   LIBCMT:_trnsctrl_.obj
 0001:00027c3c       __EH_prolog3               10028c3c f   LIBCMT:ehprolg3.obj
 0001:00027c6f       __EH_prolog3_catch         10028c6f f   LIBCMT:ehprolg3.obj
 0001:00027ca5       __EH_prolog3_GS            10028ca5 f   LIBCMT:ehprolg3.obj
 0001:00027cdb       __EH_epilog3               10028cdb f   LIBCMT:ehprolg3.obj
 0001:00027cef       __EH_epilog3_GS            10028cef f   LIBCMT:ehprolg3.obj
 0001:00027d00       _strcpy                    10028d00 f   LIBCMT:strcat.obj
 0001:00027d10       _strcat                    10028d10 f   LIBCMT:strcat.obj
 0001:00027df8       ??0bad_alloc@std@@QAE@XZ   10028df8 f i LIBCMT:new.obj
 0001:00027e13       ??1bad_alloc@std@@UAE@XZ   10028e13 f i LIBCMT:new.obj
 0001:00027e1e       ??_Ebad_alloc@std@@UAEPAXI@Z 10028e1e f i LIBCMT:new.obj
 0001:00027e1e       ??_Gbad_alloc@std@@UAEPAXI@Z 10028e1e f i LIBCMT:new.obj
 0001:00027e45       ??0bad_alloc@std@@QAE@ABV01@@Z 10028e45 f i LIBCMT:new.obj
 0001:00027e62       ??2@YAPAXI@Z               10028e62 f   LIBCMT:new.obj
 0001:00027ed0       _memmove                   10028ed0 f   LIBCMT:memmove.obj
 0001:00028235       ??_L@YGXPAXIHP6EX0@Z1@Z    10029235 f   LIBCMT:ehvecctr.obj
 0001:0002829a       ?__ArrayUnwind@@YGXPAXIHP6EX0@Z@Z 1002929a f   LIBCMT:ehvecdtr.obj
 0001:000282f8       ??_M@YGXPAXIHP6EX0@Z@Z     100292f8 f   LIBCMT:ehvecdtr.obj
 0001:0002835b       ??0_LocaleUpdate@@QAE@PAUlocaleinfo_struct@@@Z 1002935b f i LIBCMT:_ctype.obj
 0001:000283e2       __isalpha_l                100293e2 f i LIBCMT:_ctype.obj
 0001:00028438       _isalpha                   10029438 f i LIBCMT:_ctype.obj
 0001:00028468       __isupper_l                10029468 f i LIBCMT:_ctype.obj
 0001:000284b9       _isupper                   100294b9 f i LIBCMT:_ctype.obj
 0001:000284e7       __islower_l                100294e7 f i LIBCMT:_ctype.obj
 0001:00028538       _islower                   10029538 f i LIBCMT:_ctype.obj
 0001:00028566       __isdigit_l                10029566 f i LIBCMT:_ctype.obj
 0001:000285b7       _isdigit                   100295b7 f i LIBCMT:_ctype.obj
 0001:000285e5       __isspace_l                100295e5 f i LIBCMT:_ctype.obj
 0001:00028636       _isspace                   10029636 f i LIBCMT:_ctype.obj
 0001:00028664       __ispunct_l                10029664 f i LIBCMT:_ctype.obj
 0001:000286b5       _ispunct                   100296b5 f i LIBCMT:_ctype.obj
 0001:000286e3       __isalnum_l                100296e3 f i LIBCMT:_ctype.obj
 0001:00028739       _isalnum                   10029739 f i LIBCMT:_ctype.obj
 0001:00028769       __iscntrl_l                10029769 f i LIBCMT:_ctype.obj
 0001:000287ba       _iscntrl                   100297ba f i LIBCMT:_ctype.obj
 0001:000287e8       __purecall                 100297e8 f   LIBCMT:purevirt.obj
 0001:00028820       _memcpy                    10029820 f   LIBCMT:memcpy.obj
 0001:00028b85       _sprintf                   10029b85 f   LIBCMT:sprintf.obj
 0001:00028c10       _memset                    10029c10 f   LIBCMT:memset.obj
 0001:00028c8a       _abs                       10029c8a f   LIBCMT:abs.obj
 0001:00028ca0       _strncat                   10029ca0 f   LIBCMT:strncat.obj
 0001:00028dd5       __toupper_l                10029dd5 f   LIBCMT:toupper.obj
 0001:00028eeb       _toupper                   10029eeb f   LIBCMT:toupper.obj
 0001:00028f17       __tolower_l                10029f17 f   LIBCMT:tolower.obj
 0001:0002902c       _tolower                   1002a02c f   LIBCMT:tolower.obj
 0001:00029112       ___onexitinit              1002a112 f   LIBCMT:onexit.obj
 0001:00029143       __onexit                   1002a143 f   LIBCMT:onexit.obj
 0001:0002917f       _atexit                    1002a17f f   LIBCMT:onexit.obj
 0001:000291a0       _strcmp                    1002a1a0 f   LIBCMT:strcmp.obj
 0001:00029230       _strstr                    1002a230 f   LIBCMT:strstr.obj
 0001:000292b6       ___inittime                1002a2b6 f   LIBCMT:clock.obj
 0001:000292ef       __cfltcvt_init             1002a2ef f   LIBCMT:_fpinit_.obj
 0001:0002934f       __fpmath                   1002a34f f   LIBCMT:_fpinit_.obj
 0001:00029372       _abort                     1002a372 f   LIBCMT:abort.obj
 0001:00029489       __set_abort_behavior       1002a489 f   LIBCMT:abort.obj
 0001:000294b0       __chkstk                   1002a4b0 f   LIBCMT:chkstk.obj
 0001:000294b0       __alloca_probe             1002a4b0     LIBCMT:chkstk.obj
 0001:000294db       _memcmp                    1002a4db f   LIBCMT:memcmp.obj
 0001:0002ab5b       _atol                      1002bb5b f   LIBCMT:atox.obj
 0001:0002ab71       _atoi                      1002bb71 f   LIBCMT:atox.obj
 0001:0002ac40       _qsort                     1002bc40 f   LIBCMT:qsort.obj
 0001:0002ae8d       __CRT_INIT@12              1002be8d f   LIBCMT:dllcrt0.obj
 0001:0002b0b8       __DllMainCRTStartup@12     1002c0b8 f   LIBCMT:dllcrt0.obj
 0001:0002b0db       ___report_gsfailure        1002c0db f   LIBCMT:gs_report.obj
 0001:0002b1e1       ?_Type_info_dtor@type_info@@CAXPAV1@@Z 1002c1e1 f   LIBCMT:typname.obj
 0001:0002b251       _free                      1002c251 f   LIBCMT:free.obj
 0001:0002b2df       ??0bad_exception@std@@QAE@PBD@Z 1002c2df f i LIBCMT:frame.obj
 0001:0002b2fd       ??1bad_exception@std@@UAE@XZ 1002c2fd f i LIBCMT:frame.obj
 0001:0002b308       ??_Ebad_exception@std@@UAEPAXI@Z 1002c308 f i LIBCMT:frame.obj
 0001:0002b308       ??_Gbad_exception@std@@UAEPAXI@Z 1002c308 f i LIBCMT:frame.obj
 0001:0002b32f       ___TypeMatch               1002c32f f   LIBCMT:frame.obj
 0001:0002b38e       ___FrameUnwindFilter       1002c38e f   LIBCMT:frame.obj
 0001:0002b3d7       ___FrameUnwindToState      1002c3d7 f   LIBCMT:frame.obj
 0001:0002b4fd       ___DestructExceptionObject 1002c4fd f   LIBCMT:frame.obj
 0001:0002b552       ___AdjustPointer           1002c552 f   LIBCMT:frame.obj
 0001:0002b7db       ___BuildCatchObjectHelper  1002c7db f   LIBCMT:frame.obj
 0001:0002b95a       ___BuildCatchObject        1002c95a f   LIBCMT:frame.obj
 0001:0002be95       ??0bad_exception@std@@QAE@ABV01@@Z 1002ce95 f i LIBCMT:frame.obj
 0001:0002beb2       ___InternalCxxFrameHandler 1002ceb2 f   LIBCMT:frame.obj
 0001:0002bf98       __encode_pointer           1002cf98 f   LIBCMT:tidtable.obj
 0001:0002c00a       __encoded_null             1002d00a f   LIBCMT:tidtable.obj
 0001:0002c013       __decode_pointer           1002d013 f   LIBCMT:tidtable.obj
 0001:0002c085       ___crtTlsAlloc@4           1002d085 f   LIBCMT:tidtable.obj
 0001:0002c08e       ___set_flsgetvalue         1002d08e f   LIBCMT:tidtable.obj
 0001:0002c0c2       __mtterm                   1002d0c2 f   LIBCMT:tidtable.obj
 0001:0002c0ff       __initptd                  1002d0ff f   LIBCMT:tidtable.obj
 0001:0002c1e6       __getptd_noexit            1002d1e6 f   LIBCMT:tidtable.obj
 0001:0002c25f       __getptd                   1002d25f f   LIBCMT:tidtable.obj
 0001:0002c279       __freefls@4                1002d279 f   LIBCMT:tidtable.obj
 0001:0002c3a8       __freeptd                  1002d3a8 f   LIBCMT:tidtable.obj
 0001:0002c416       __mtinit                   1002d416 f   LIBCMT:tidtable.obj
 0001:0002c5a3       ?terminate@@YAXXZ          1002d5a3 f   LIBCMT:hooks.obj
 0001:0002c5dc       ?unexpected@@YAXXZ         1002d5dc f   LIBCMT:hooks.obj
 0001:0002c5ef       ?_inconsistency@@YAXXZ     1002d5ef f   LIBCMT:hooks.obj
 0001:0002c627       __initp_eh_hooks           1002d627 f   LIBCMT:hooks.obj
 0001:0002c640       __CallSettingFrame@12      1002d640 f   LIBCMT:lowhelpr.obj
 0001:0002c667       __NLG_Return               1002d667     LIBCMT:lowhelpr.obj
 0001:0002c68c       ??0exception@std@@QAE@ABQBD@Z 1002d68c f   LIBCMT:stdexcpt.obj
 0001:0002c6df       ??0exception@std@@QAE@ABQBDH@Z 1002d6df f   LIBCMT:stdexcpt.obj
 0001:0002c6fc       ??0exception@std@@QAE@ABV01@@Z 1002d6fc f   LIBCMT:stdexcpt.obj
 0001:0002c759       ??1exception@std@@UAE@XZ   1002d759 f   LIBCMT:stdexcpt.obj
 0001:0002c76f       ?what@exception@std@@UBEPBDXZ 1002d76f f   LIBCMT:stdexcpt.obj
 0001:0002c77c       ??_Gexception@std@@UAEPAXI@Z 1002d77c f i LIBCMT:stdexcpt.obj
 0001:0002c77c       ??_Eexception@std@@UAEPAXI@Z 1002d77c f i LIBCMT:stdexcpt.obj
 0001:0002c79d       _V6_HeapAlloc              1002d79d f   LIBCMT:malloc.obj
 0001:0002c7ec       _malloc                    1002d7ec f   LIBCMT:malloc.obj
 0001:0002c8b6       __initp_heap_handler       1002d8b6 f   LIBCMT:handler.obj
 0001:0002c8c5       __callnewh                 1002d8c5 f   LIBCMT:handler.obj
 0001:0002c8ed       __CxxThrowException@8      1002d8ed f   LIBCMT:throw.obj
 0001:0002c9c0       __VEC_memcpy               1002d9c0 f   LIBCMT:p4_memcpy.obj
 0001:0002caf3       __get_sse2_info            1002daf3 f   LIBCMT:cpu_disp.obj
 0001:0002cb55       ___sse2_available_init     1002db55 f   LIBCMT:cpu_disp.obj
 0001:0002cb64       __SEH_prolog4              1002db64 f   LIBCMT:sehprolg4.obj
 0001:0002cba9       __SEH_epilog4              1002dba9 f   LIBCMT:sehprolg4.obj
 0001:0002cbc0       __except_handler4          1002dbc0 f   LIBCMT:chandler4.obj
 0001:0002cf72       ___updatetmbcinfo          1002df72 f   LIBCMT:mbctype.obj
 0001:0002d092       __setmbcp_nolock           1002e092 f   LIBCMT:mbctype.obj
 0001:0002d277       __setmbcp                  1002e277 f   LIBCMT:mbctype.obj
 0001:0002d411       ___initmbctable            1002e411 f   LIBCMT:mbctype.obj
 0001:0002d42f       ___freetlocinfo            1002e42f f   LIBCMT:setlocal.obj
 0001:0002d578       ___addlocaleref            1002e578 f   LIBCMT:setlocal.obj
 0001:0002d607       ___removelocaleref         1002e607 f   LIBCMT:setlocal.obj
 0001:0002d6de       ___updatetlocinfo          1002e6de f   LIBCMT:setlocal.obj
 0001:0002d754       __isctype_l                1002e754 f   LIBCMT:isctype.obj
 0001:0002d80c       __NMSG_WRITE               1002e80c f   LIBCMT:crt0msg.obj
 0001:0002d9b7       __FF_MSGBANNER             1002e9b7 f   LIBCMT:crt0msg.obj
 0001:0002d9f0       __initp_misc_purevirt      1002e9f0 f   LIBCMT:inithelp.obj
 0001:0002d9ff       __flsbuf                   1002e9ff f   LIBCMT:_flsbuf.obj
 0001:0002dc09       __output_l                 1002ec09 f   LIBCMT:output.obj
 0001:0002e7a1       __initp_misc_invarg        1002f7a1 f   LIBCMT:invarg.obj
 0001:0002e7b0       __invoke_watson            1002f7b0 f   LIBCMT:invarg.obj
 0001:0002e8d8       __invalid_parameter        1002f8d8 f   LIBCMT:invarg.obj
 0001:0002e8fe       __get_errno_from_oserr     1002f8fe f   LIBCMT:dosmap.obj
 0001:0002e940       __errno                    1002f940 f   LIBCMT:dosmap.obj
 0001:0002e953       ___doserrno                1002f953 f   LIBCMT:dosmap.obj
 0001:0002e966       __dosmaperr                1002f966 f   LIBCMT:dosmap.obj
 0001:0002e9e0       __VEC_memzero              1002f9e0 f   LIBCMT:p4_memset.obj
 0001:0002ea6f       __freea                    1002fa6f f i LIBCMT:a_map.obj
 0001:0002ee34       ___crtLCMapStringA         1002fe34 f   LIBCMT:a_map.obj
 0001:0002ee79       __isleadbyte_l             1002fe79 f i LIBCMT:_wctype.obj
 0001:0002eeb1       _isleadbyte                1002feb1 f i LIBCMT:_wctype.obj
 0001:0002eec4       __malloc_crt               1002fec4 f   LIBCMT:crtheap.obj
 0001:0002ef09       __calloc_crt               1002ff09 f   LIBCMT:crtheap.obj
 0001:0002ef55       __realloc_crt              1002ff55 f   LIBCMT:crtheap.obj
 0001:0002efa3       __msize                    1002ffa3 f   LIBCMT:msize.obj
 0001:0002f046       __crt_waiting_on_module_handle 10030046 f   LIBCMT:crt0dat.obj
 0001:0002f076       __amsg_exit                10030076 f   LIBCMT:crt0dat.obj
 0001:0002f09f       ___crtCorExitProcess       1003009f f   LIBCMT:crt0dat.obj
 0001:0002f0ca       ___crtExitProcess          100300ca f   LIBCMT:crt0dat.obj
 0001:0002f0e2       __lockexit                 100300e2 f   LIBCMT:crt0dat.obj
 0001:0002f0eb       __unlockexit               100300eb f   LIBCMT:crt0dat.obj
 0001:0002f111       __initterm_e               10030111 f   LIBCMT:crt0dat.obj
 0001:0002f135       __cinit                    10030135 f   LIBCMT:crt0dat.obj
 0001:0002f2e6       __exit                     100302e6 f   LIBCMT:crt0dat.obj
 0001:0002f2fc       __cexit                    100302fc f   LIBCMT:crt0dat.obj
 0001:0002f30b       __init_pointers            1003030b f   LIBCMT:crt0dat.obj
 0001:0002f360       __aulldiv                  10030360 f   LIBCMT:ulldiv.obj
 0001:0002f3d0       __allmul                   100303d0 f   LIBCMT:llmul.obj
 0001:0002f404       __forcdecpt_l              10030404 f   LIBCMT:cvt.obj
 0001:0002f477       __cropzeros_l              10030477 f   LIBCMT:cvt.obj
 0001:0002f4f9       __positive                 100304f9 f   LIBCMT:cvt.obj
 0001:0002f515       __fassign_l                10030515 f   LIBCMT:cvt.obj
 0001:0002f557       __fassign                  10030557 f   LIBCMT:cvt.obj
 0001:0002f590       __forcdecpt                10030590 f   LIBCMT:cvt.obj
 0001:0002f5a3       __cropzeros                100305a3 f   LIBCMT:cvt.obj
 0001:0002f725       __cftoe_l                  10030725 f   LIBCMT:cvt.obj
 0001:0002f7f5       __cftoe                    100307f5 f   LIBCMT:cvt.obj
 0001:0002f815       __cftoa_l                  10030815 f   LIBCMT:cvt.obj
 0001:0002fc7f       __cftof_l                  10030c7f f   LIBCMT:cvt.obj
 0001:0002fd3a       __cftog_l                  10030d3a f   LIBCMT:cvt.obj
 0001:0002fe34       __cfltcvt_l                10030e34 f   LIBCMT:cvt.obj
 0001:0002febc       __cfltcvt                  10030ebc f   LIBCMT:cvt.obj
 0001:0002fedf       __initp_misc_cfltcvt_tab   10030edf f   LIBCMT:cmiscdat.obj
 0001:0002ff00       __setdefaultprecision      10030f00 f   LIBCMT:fp8.obj
 0001:0002ff2b       __ms_p5_test_fdiv          10030f2b f   LIBCMT:_testfdiv_.obj
 0001:0002ff69       __ms_p5_mp_test_fdiv       10030f69 f   LIBCMT:_testfdiv_.obj
 0001:0002ff92       __initp_misc_winsig        10030f92 f   LIBCMT:winsig.obj
 0001:0002ffe7       ___get_sigabrt             10030fe7 f   LIBCMT:winsig.obj
 0001:0002fff4       _raise                     10030ff4 f   LIBCMT:winsig.obj
 0001:000303d3       _strtol                    100313d3 f   LIBCMT:strtol.obj
 0001:000303fe       __ioinit                   100313fe f   LIBCMT:ioinit.obj
 0001:00030652       __ioterm                   10031652 f   LIBCMT:ioinit.obj
 0001:000306a0       __setenvp                  100316a0 f   LIBCMT:stdenvp.obj
 0001:00030918       __setargv                  10031918 f   LIBCMT:stdargv.obj
 0001:000309d3       ___crtGetEnvironmentStringsA 100319d3 f   LIBCMT:a_env.obj
 0001:00030b0a       __RTC_Initialize           10031b0a f   LIBCMT:_initsect_.obj
 0001:00030b30       __RTC_Terminate            10031b30 f   LIBCMT:_initsect_.obj
 0001:00030b56       __heap_init                10031b56 f   LIBCMT:heapinit.obj
 0001:00030b86       __heap_term                10031b86 f   LIBCMT:heapinit.obj
 0001:00030bfa       __XcptFilter               10031bfa f   LIBCMT:winxfltr.obj
 0001:00030d5a       ___CppXcptFilter           10031d5a f   LIBCMT:winxfltr.obj
 0001:00030d7a       ___security_init_cookie    10031d7a f   LIBCMT:gs_support.obj
 0001:00030e10       __crt_debugger_hook        10031e10 f   LIBCMT:dbghook.obj
 0001:00030e18       __mtinitlocks              10031e18 f   LIBCMT:mlock.obj
 0001:00030e63       __mtdeletelocks            10031e63 f   LIBCMT:mlock.obj
 0001:00030eba       __unlock                   10031eba f   LIBCMT:mlock.obj
 0001:00030ed1       __mtinitlocknum            10031ed1 f   LIBCMT:mlock.obj
 0001:00030f94       __lock                     10031f94 f   LIBCMT:mlock.obj
 0001:00030fc7       _strcpy_s                  10031fc7 f   LIBCMT:strcpy_s.obj
 0001:00031030       __local_unwind4            10032030 f   LIBCMT:exsup4.obj
 0001:00031106       __seh_longjmp_unwind4@4    10032106 f   LIBCMT:exsup4.obj
 0001:00031122       @_EH4_CallFilterFunc@8     10032122 f   LIBCMT:exsup4.obj
 0001:00031139       @_EH4_TransferToHandler@8  10032139 f   LIBCMT:exsup4.obj
 0001:00031152       @_EH4_GlobalUnwind@4       10032152 f   LIBCMT:exsup4.obj
 0001:0003116c       @_EH4_LocalUnwind@16       1003216c f   LIBCMT:exsup4.obj
 0001:00031183       ___sbh_find_block          10032183 f   LIBCMT:sbheap.obj
 0001:000311b3       ___sbh_free_block          100321b3 f   LIBCMT:sbheap.obj
 0001:000314c9       ___sbh_alloc_new_region    100324c9 f   LIBCMT:sbheap.obj
 0001:00031579       ___sbh_alloc_new_group     10032579 f   LIBCMT:sbheap.obj
 0001:00031681       ___sbh_resize_block        10032681 f   LIBCMT:sbheap.obj
 0001:00031962       ___sbh_alloc_block         10032962 f   LIBCMT:sbheap.obj
 0001:00031c47       ?_ValidateWrite@@YAHPAXI@Z 10032c47 f   LIBCMT:validate.obj
 0001:00031c47       ?_ValidateRead@@YAHPBXI@Z  10032c47 f   LIBCMT:validate.obj
 0001:00031c47       ?_ValidateExecute@@YAHP6GHXZ@Z 10032c47 f   LIBCMT:validate.obj
 0001:00031c5c       __global_unwind2           10032c5c f   LIBCMT:exsup.obj
 0001:00031cc1       __local_unwind2            10032cc1 f   LIBCMT:exsup.obj
 0001:00031d45       __abnormal_termination     10032d45 f   LIBCMT:exsup.obj
 0001:00031d68       __NLG_Notify1              10032d68 f   LIBCMT:exsup.obj
 0001:00031d71       __NLG_Notify               10032d71 f   LIBCMT:exsup.obj
 0001:00031d88       __NLG_Dispatch2            10032d88     LIBCMT:exsup.obj
 0001:00031d88       __NLG_Dispatch             10032d88     LIBCMT:exsup.obj
 0001:00031d90       __NLG_Call                 10032d90 f   LIBCMT:exsup.obj
 0001:00031d92       __NLG_Return2              10032d92     LIBCMT:exsup.obj
 0001:00031da0       __ValidateImageBase        10032da0 f   LIBCMT:pesect.obj
 0001:00031de0       __FindPESection            10032de0 f   LIBCMT:pesect.obj
 0001:00031e30       __IsNonwritableInCurrentImage 10032e30 f   LIBCMT:pesect.obj
 0001:000320a7       ___crtGetStringTypeA       100330a7 f   LIBCMT:a_str.obj
 0001:000320e9       ___free_lc_time            100330e9 f   LIBCMT:inittime.obj
 0001:0003227e       ___free_lconv_num          1003327e f   LIBCMT:initnum.obj
 0001:000322c3       ___free_lconv_mon          100332c3 f   LIBCMT:initmon.obj
 0001:00032351       _strcat_s                  10033351 f   LIBCMT:strcat_s.obj
 0001:000323d0       _strcspn                   100333d0 f   LIBCMT:strcspn.obj
 0001:00032416       _strncpy_s                 10033416 f   LIBCMT:strncpy_s.obj
 0001:000324d0       _strpbrk                   100334d0 f   LIBCMT:strpbrk.obj
 0001:00032510       ___crtMessageBoxA          10033510 f   LIBCMT:crtmbox.obj
 0001:00032679       __set_error_mode           10033679 f   LIBCMT:errmode.obj
 0001:000326c4       __lseeki64_nolock          100336c4 f   LIBCMT:lseeki64.obj
 0001:00032749       __lseeki64                 10033749 f   LIBCMT:lseeki64.obj
 0001:00032862       __write_nolock             10033862 f   LIBCMT:write.obj
 0001:00032f95       __write                    10033f95 f   LIBCMT:write.obj
 0001:00033071       __getbuf                   10034071 f   LIBCMT:_getbuf.obj
 0001:000330ba       __isatty                   100340ba f   LIBCMT:isatty.obj
 0001:0003311e       ___iob_func                1003411e f   LIBCMT:_file.obj
 0001:00033124       ___initstdio               10034124 f   LIBCMT:_file.obj
 0001:000331d5       ___endstdio                100341d5 f   LIBCMT:_file.obj
 0001:000331f5       __lock_file                100341f5 f   LIBCMT:_file.obj
 0001:00033236       __lock_file2               10034236 f   LIBCMT:_file.obj
 0001:00033268       __unlock_file              10034268 f   LIBCMT:_file.obj
 0001:000332a4       __unlock_file2             100342a4 f   LIBCMT:_file.obj
 0001:000332d3       __fileno                   100342d3 f   LIBCMT:fileno.obj
 0001:00033305       __get_printf_count_output  10034305 f   LIBCMT:printf.obj
 0001:0003331b       __wctomb_s_l               1003431b f   LIBCMT:wctomb.obj
 0001:00033487       _wctomb_s                  10034487 f   LIBCMT:wctomb.obj
 0001:000334b0       __aulldvrm                 100344b0 f   LIBCMT:ulldvrm.obj
 0001:00033545       ___ansicp                  10034545 f   LIBCMT:convrtcp.obj
 0001:0003358e       ___convertcp               1003458e f   LIBCMT:convrtcp.obj
 0001:00033750       __alloca_probe_16          10034750 f   LIBCMT:alloca16.obj
 0001:00033766       __alloca_probe_8           10034766     LIBCMT:alloca16.obj
 0001:0003377c       __calloc_impl              1003477c f   LIBCMT:calloc_impl.obj
 0001:0003389a       _realloc                   1003489a f   LIBCMT:realloc.obj
 0001:00033ab5       __initp_misc_rand_s        10034ab5 f   LIBCMT:rand_s.obj
 0001:00033ac4       __initp_misc_initcrit      10034ac4 f   LIBCMT:initcrit.obj
 0001:00033ad3       ___crtInitCritSecAndSpinCount 10034ad3 f   LIBCMT:initcrit.obj
 0001:00033b40       _strrchr                   10034b40 f   LIBCMT:strrchr.obj
 0001:00033b6d       __atodbl_l                 10034b6d f   LIBCMT:atodbl.obj
 0001:00033c15       __atoflt_l                 10034c15 f   LIBCMT:atodbl.obj
 0001:00033cbd       __fptostr                  10034cbd f   LIBCMT:_fptostr.obj
 0001:00033d7c       ___dtold                   10034d7c f   LIBCMT:_cfout_.obj
 0001:00033e39       __fltout2                  10034e39 f   LIBCMT:_cfout_.obj
 0001:00033ed0       __alldvrm                  10034ed0 f   LIBCMT:lldvrm.obj
 0001:00033fb0       __aullshr                  10034fb0 f   LIBCMT:ullshr.obj
 0001:00033fcf       __fptrap                   10034fcf f   LIBCMT:crt0fp.obj
 0001:00033fd8       __controlfp_s              10034fd8 f   LIBCMT:_contrlfp_.obj
 0001:00034097       __ismbblead                10035097 f   LIBCMT:ismbbyte.obj
 0001:000340af       __free_osfhnd              100350af f   LIBCMT:osfinfo.obj
 0001:00034135       __get_osfhandle            10035135 f   LIBCMT:osfinfo.obj
 0001:000341ac       ___lock_fhandle            100351ac f   LIBCMT:osfinfo.obj
 0001:0003424c       __unlock_fhandle           1003524c f   LIBCMT:osfinfo.obj
 0001:00034273       __putwch_nolock            10035273 f   LIBCMT:putwch.obj
 0001:00034338       __mbtowc_l                 10035338 f   LIBCMT:mbtowc.obj
 0001:0003444f       _mbtowc                    1003544f f   LIBCMT:mbtowc.obj
 0001:00034469       __fcloseall                10035469 f   LIBCMT:closeall.obj
 0001:00034508       __flush                    10035508 f   LIBCMT:fflush.obj
 0001:00034570       __fflush_nolock            10035570 f   LIBCMT:fflush.obj
 0001:00034692       __flushall                 10035692 f   LIBCMT:fflush.obj
 0001:0003469b       __ld12tod                  1003569b f   LIBCMT:_intrncvt_.obj
 0001:00034bdf       __ld12tof                  10035bdf f   LIBCMT:_intrncvt_.obj
 0001:00035123       ___strgtold12_l            10036123 f   LIBCMT:_strgtold_.obj
 0001:0003581b       _$I10_OUTPUT               1003681b f   LIBCMT:_x10fout_.obj
 0001:0003626d       __control87                1003726d f i LIBCMT:_ieee87_.obj
 0001:00036580       ___ascii_strnicmp          10037580 f   LIBCMT:_strnicm.obj
 0001:000365e1       ___initconout              100375e1 f   LIBCMT:initcon.obj
 0001:00036600       ___termcon                 10037600 f   LIBCMT:initcon.obj
 0001:0003662d       __fclose_nolock            1003762d f   LIBCMT:fclose.obj
 0001:000366a4       _fclose                    100376a4 f   LIBCMT:fclose.obj
 0001:00036720       __commit                   10037720 f   LIBCMT:commit.obj
 0001:00036801       ___mtold12                 10037801 f   LIBCMT:_mantold_.obj
 0001:000369cf       ___set_fpsr_sse2           100379cf f   LIBCMT:_fpctrl_.obj
 0001:00036a41       __close_nolock             10037a41 f   LIBCMT:close.obj
 0001:00036add       __close                    10037add f   LIBCMT:close.obj
 0001:00036baa       __freebuf                  10037baa f   LIBCMT:_freebuf.obj
 0001:00036bdc       _RtlUnwind@16              10037bdc f   kernel32:KERNEL32.dll
 0002:00000000       __imp__SelectPalette@12    10039000     gdi32:GDI32.dll
 0002:00000004       __imp__DeleteObject@4      10039004     gdi32:GDI32.dll
 0002:00000008       __imp__DeleteDC@4          10039008     gdi32:GDI32.dll
 0002:0000000c       __imp__SelectObject@8      1003900c     gdi32:GDI32.dll
 0002:00000010       __imp__SetTextAlign@8      10039010     gdi32:GDI32.dll
 0002:00000014       __imp__CreateCompatibleDC@4 10039014     gdi32:GDI32.dll
 0002:00000018       __imp__CreateCompatibleBitmap@12 10039018     gdi32:GDI32.dll
 0002:0000001c       __imp__CreateBitmap@20     1003901c     gdi32:GDI32.dll
 0002:00000020       __imp__CreateRectRgn@16    10039020     gdi32:GDI32.dll
 0002:00000024       __imp__CombineRgn@16       10039024     gdi32:GDI32.dll
 0002:00000028       __imp__TranslateCharsetInfo@12 10039028     gdi32:GDI32.dll
 0002:0000002c       __imp__SetBkMode@8         1003902c     gdi32:GDI32.dll
 0002:00000030       __imp__ExtTextOutW@32      10039030     gdi32:GDI32.dll
 0002:00000034       __imp__SetTextColor@8      10039034     gdi32:GDI32.dll
 0002:00000038       __imp__GetTextExtentExPointW@28 10039038     gdi32:GDI32.dll
 0002:0000003c       __imp__GetTextExtentExPointA@28 1003903c     gdi32:GDI32.dll
 0002:00000040       __imp__GetTextExtentPoint32W@16 10039040     gdi32:GDI32.dll
 0002:00000044       __imp__CreateDIBSection@24 10039044     gdi32:GDI32.dll
 0002:00000048       __imp__GetStockObject@4    10039048     gdi32:GDI32.dll
 0002:0000004c       __imp__GetObjectA@12       1003904c     gdi32:GDI32.dll
 0002:00000050       __imp__CreateFontIndirectA@4 10039050     gdi32:GDI32.dll
 0002:00000054       __imp__IntersectClipRect@20 10039054     gdi32:GDI32.dll
 0002:00000058       __imp__RealizePalette@4    10039058     gdi32:GDI32.dll
 0002:0000005c       __imp__GetTextMetricsA@8   1003905c     gdi32:GDI32.dll
 0002:00000060       __imp__GetTextExtentPoint32A@16 10039060     gdi32:GDI32.dll
 0002:00000064       __imp__BitBlt@36           10039064     gdi32:GDI32.dll
 0002:00000068       __imp__Ellipse@20          10039068     gdi32:GDI32.dll
 0002:0000006c       __imp__RoundRect@28        1003906c     gdi32:GDI32.dll
 0002:00000070       __imp__CreatePatternBrush@4 10039070     gdi32:GDI32.dll
 0002:00000074       __imp__SetBkColor@8        10039074     gdi32:GDI32.dll
 0002:00000078       __imp__ExtTextOutA@32      10039078     gdi32:GDI32.dll
 0002:0000007c       __imp__Rectangle@20        1003907c     gdi32:GDI32.dll
 0002:00000080       __imp__Polygon@12          10039080     gdi32:GDI32.dll
 0002:00000084       __imp__LineTo@12           10039084     gdi32:GDI32.dll
 0002:00000088       __imp__MoveToEx@16         10039088     gdi32:GDI32.dll
 0002:0000008c       __imp__GetDeviceCaps@8     1003908c     gdi32:GDI32.dll
 0002:00000090       __imp__GetNearestColor@8   10039090     gdi32:GDI32.dll
 0002:00000094       __imp__CreateSolidBrush@4  10039094     gdi32:GDI32.dll
 0002:00000098       __imp__CreatePen@12        10039098     gdi32:GDI32.dll
 0002:0000009c       __imp__CreatePalette@4     1003909c     gdi32:GDI32.dll
 0002:000000a0       \177GDI32_NULL_THUNK_DATA  100390a0     gdi32:GDI32.dll
 0002:000000a4       __imp__ImmSetCompositionFontA@8 100390a4     imm32:IMM32.dll
 0002:000000a8       __imp__ImmGetContext@4     100390a8     imm32:IMM32.dll
 0002:000000ac       __imp__ImmReleaseContext@8 100390ac     imm32:IMM32.dll
 0002:000000b0       __imp__ImmGetCompositionStringW@16 100390b0     imm32:IMM32.dll
 0002:000000b4       __imp__ImmSetCompositionWindow@8 100390b4     imm32:IMM32.dll
 0002:000000b8       __imp__ImmNotifyIME@16     100390b8     imm32:IMM32.dll
 0002:000000bc       \177IMM32_NULL_THUNK_DATA  100390bc     imm32:IMM32.dll
 0002:000000c0       __imp__FreeLibrary@4       100390c0     kernel32:KERNEL32.dll
 0002:000000c4       __imp__FlushFileBuffers@4  100390c4     kernel32:KERNEL32.dll
 0002:000000c8       __imp__CloseHandle@4       100390c8     kernel32:KERNEL32.dll
 0002:000000cc       __imp__CreateFileA@28      100390cc     kernel32:KERNEL32.dll
 0002:000000d0       __imp__WriteConsoleW@20    100390d0     kernel32:KERNEL32.dll
 0002:000000d4       __imp__GetConsoleOutputCP@0 100390d4     kernel32:KERNEL32.dll
 0002:000000d8       __imp__WriteConsoleA@20    100390d8     kernel32:KERNEL32.dll
 0002:000000dc       __imp__SetStdHandle@8      100390dc     kernel32:KERNEL32.dll
 0002:000000e0       __imp__InitializeCriticalSectionAndSpinCount@8 100390e0     kernel32:KERNEL32.dll
 0002:000000e4       __imp__GetConsoleMode@8    100390e4     kernel32:KERNEL32.dll
 0002:000000e8       __imp__GetConsoleCP@0      100390e8     kernel32:KERNEL32.dll
 0002:000000ec       __imp__SetFilePointer@16   100390ec     kernel32:KERNEL32.dll
 0002:000000f0       __imp__GetStringTypeW@16   100390f0     kernel32:KERNEL32.dll
 0002:000000f4       __imp__GetStringTypeA@20   100390f4     kernel32:KERNEL32.dll
 0002:000000f8       __imp__HeapReAlloc@16      100390f8     kernel32:KERNEL32.dll
 0002:000000fc       __imp__VirtualAlloc@16     100390fc     kernel32:KERNEL32.dll
 0002:00000100       __imp__GetCurrentProcessId@0 10039100     kernel32:KERNEL32.dll
 0002:00000104       __imp__VirtualFree@12      10039104     kernel32:KERNEL32.dll
 0002:00000108       __imp__HeapDestroy@4       10039108     kernel32:KERNEL32.dll
 0002:0000010c       __imp__HeapCreate@12       1003910c     kernel32:KERNEL32.dll
 0002:00000110       __imp__GetEnvironmentStringsW@0 10039110     kernel32:KERNEL32.dll
 0002:00000114       __imp__FreeEnvironmentStringsW@4 10039114     kernel32:KERNEL32.dll
 0002:00000118       __imp__GetEnvironmentStrings@0 10039118     kernel32:KERNEL32.dll
 0002:0000011c       __imp__FreeEnvironmentStringsA@4 1003911c     kernel32:KERNEL32.dll
 0002:00000120       __imp__GetStartupInfoA@4   10039120     kernel32:KERNEL32.dll
 0002:00000124       __imp__GetFileType@4       10039124     kernel32:KERNEL32.dll
 0002:00000128       __imp__SetHandleCount@4    10039128     kernel32:KERNEL32.dll
 0002:0000012c       __imp__ExitProcess@4       1003912c     kernel32:KERNEL32.dll
 0002:00000130       __imp__HeapSize@12         10039130     kernel32:KERNEL32.dll
 0002:00000134       __imp__Sleep@4             10039134     kernel32:KERNEL32.dll
 0002:00000138       __imp__LCMapStringW@24     10039138     kernel32:KERNEL32.dll
 0002:0000013c       __imp__LCMapStringA@24     1003913c     kernel32:KERNEL32.dll
 0002:00000140       __imp__GetModuleFileNameA@12 10039140     kernel32:KERNEL32.dll
 0002:00000144       __imp__GetStdHandle@4      10039144     kernel32:KERNEL32.dll
 0002:00000148       __imp__WriteFile@20        10039148     kernel32:KERNEL32.dll
 0002:0000014c       __imp__GetOEMCP@0          1003914c     kernel32:KERNEL32.dll
 0002:00000150       __imp__RaiseException@16   10039150     kernel32:KERNEL32.dll
 0002:00000154       __imp__HeapAlloc@12        10039154     kernel32:KERNEL32.dll
 0002:00000158       __imp__InterlockedDecrement@4 10039158     kernel32:KERNEL32.dll
 0002:0000015c       __imp__SetLastError@4      1003915c     kernel32:KERNEL32.dll
 0002:00000160       __imp__InterlockedIncrement@4 10039160     kernel32:KERNEL32.dll
 0002:00000164       __imp__TlsFree@4           10039164     kernel32:KERNEL32.dll
 0002:00000168       __imp__TlsSetValue@8       10039168     kernel32:KERNEL32.dll
 0002:0000016c       __imp__TlsAlloc@0          1003916c     kernel32:KERNEL32.dll
 0002:00000170       __imp__TlsGetValue@4       10039170     kernel32:KERNEL32.dll
 0002:00000174       __imp__GetModuleHandleW@4  10039174     kernel32:KERNEL32.dll
 0002:00000178       __imp__HeapFree@12         10039178     kernel32:KERNEL32.dll
 0002:0000017c       __imp__GetLastError@0      1003917c     kernel32:KERNEL32.dll
 0002:00000180       __imp__IsDebuggerPresent@0 10039180     kernel32:KERNEL32.dll
 0002:00000184       __imp__GetCurrentProcess@0 10039184     kernel32:KERNEL32.dll
 0002:00000188       __imp__TerminateProcess@8  10039188     kernel32:KERNEL32.dll
 0002:0000018c       __imp__GetCommandLineA@0   1003918c     kernel32:KERNEL32.dll
 0002:00000190       __imp__GetCurrentThreadId@0 10039190     kernel32:KERNEL32.dll
 0002:00000194       __imp__SetUnhandledExceptionFilter@4 10039194     kernel32:KERNEL32.dll
 0002:00000198       __imp__UnhandledExceptionFilter@4 10039198     kernel32:KERNEL32.dll
 0002:0000019c       __imp__GetSystemTimeAsFileTime@4 1003919c     kernel32:KERNEL32.dll
 0002:000001a0       __imp__RtlUnwind@16        100391a0     kernel32:KERNEL32.dll
 0002:000001a4       __imp__LeaveCriticalSection@4 100391a4     kernel32:KERNEL32.dll
 0002:000001a8       __imp__EnterCriticalSection@4 100391a8     kernel32:KERNEL32.dll
 0002:000001ac       __imp__MulDiv@12           100391ac     kernel32:KERNEL32.dll
 0002:000001b0       __imp__GetACP@0            100391b0     kernel32:KERNEL32.dll
 0002:000001b4       __imp__GetModuleHandleA@4  100391b4     kernel32:KERNEL32.dll
 0002:000001b8       __imp__GetTickCount@0      100391b8     kernel32:KERNEL32.dll
 0002:000001bc       __imp__GlobalFree@4        100391bc     kernel32:KERNEL32.dll
 0002:000001c0       __imp__GlobalSize@4        100391c0     kernel32:KERNEL32.dll
 0002:000001c4       __imp__GlobalUnlock@4      100391c4     kernel32:KERNEL32.dll
 0002:000001c8       __imp__GlobalAlloc@8       100391c8     kernel32:KERNEL32.dll
 0002:000001cc       __imp__GlobalLock@4        100391cc     kernel32:KERNEL32.dll
 0002:000001d0       __imp__IsValidCodePage@4   100391d0     kernel32:KERNEL32.dll
 0002:000001d4       __imp__GetCPInfo@8         100391d4     kernel32:KERNEL32.dll
 0002:000001d8       __imp__WideCharToMultiByte@32 100391d8     kernel32:KERNEL32.dll
 0002:000001dc       __imp__GetLocaleInfoA@16   100391dc     kernel32:KERNEL32.dll
 0002:000001e0       __imp__GetVersionExA@4     100391e0     kernel32:KERNEL32.dll
 0002:000001e4       __imp__InitializeCriticalSection@4 100391e4     kernel32:KERNEL32.dll
 0002:000001e8       __imp__GetProcAddress@8    100391e8     kernel32:KERNEL32.dll
 0002:000001ec       __imp__LoadLibraryA@4      100391ec     kernel32:KERNEL32.dll
 0002:000001f0       __imp__MultiByteToWideChar@24 100391f0     kernel32:KERNEL32.dll
 0002:000001f4       __imp__DeleteCriticalSection@4 100391f4     kernel32:KERNEL32.dll
 0002:000001f8       __imp__IsDBCSLeadByteEx@8  100391f8     kernel32:KERNEL32.dll
 0002:000001fc       __imp__QueryPerformanceCounter@4 100391fc     kernel32:KERNEL32.dll
 0002:00000200       \177KERNEL32_NULL_THUNK_DATA 10039200     kernel32:KERNEL32.dll
 0002:00000204       __imp__GetWindowLongA@8    10039204     user32:USER32.dll
 0002:00000208       __imp__SetWindowLongA@12   10039208     user32:USER32.dll
 0002:0000020c       __imp__FillRect@12         1003920c     user32:USER32.dll
 0002:00000210       __imp__DestroyWindow@4     10039210     user32:USER32.dll
 0002:00000214       __imp__MapWindowPoints@16  10039214     user32:USER32.dll
 0002:00000218       __imp__CreateWindowExA@48  10039218     user32:USER32.dll
 0002:0000021c       __imp__AdjustWindowRectEx@16 1003921c     user32:USER32.dll
 0002:00000220       __imp__GetSystemMetrics@4  10039220     user32:USER32.dll
 0002:00000224       __imp__SetCapture@4        10039224     user32:USER32.dll
 0002:00000228       __imp__GetCursorPos@4      10039228     user32:USER32.dll
 0002:0000022c       __imp__GetWindowRect@8     1003922c     user32:USER32.dll
 0002:00000230       __imp__SetWindowPos@28     10039230     user32:USER32.dll
 0002:00000234       __imp__GetClientRect@8     10039234     user32:USER32.dll
 0002:00000238       __imp__ShowWindow@8        10039238     user32:USER32.dll
 0002:0000023c       __imp__InvalidateRect@12   1003923c     user32:USER32.dll
 0002:00000240       __imp__SendMessageA@16     10039240     user32:USER32.dll
 0002:00000244       __imp__SetCursor@4         10039244     user32:USER32.dll
 0002:00000248       __imp__LoadCursorA@8       10039248     user32:USER32.dll
 0002:0000024c       __imp__RegisterClassExW@4  1003924c     user32:USER32.dll
 0002:00000250       __imp__IsChild@8           10039250     user32:USER32.dll
 0002:00000254       __imp__ClientToScreen@8    10039254     user32:USER32.dll
 0002:00000258       __imp__IsWindowUnicode@4   10039258     user32:USER32.dll
 0002:0000025c       __imp__GetMessageTime@0    1003925c     user32:USER32.dll
 0002:00000260       __imp__SetFocus@4          10039260     user32:USER32.dll
 0002:00000264       __imp__MsgWaitForMultipleObjects@20 10039264     user32:USER32.dll
 0002:00000268       __imp__PostMessageA@16     10039268     user32:USER32.dll
 0002:0000026c       __imp__GetUpdateRgn@12     1003926c     user32:USER32.dll
 0002:00000270       __imp__SetCaretPos@8       10039270     user32:USER32.dll
 0002:00000274       __imp__RegisterClipboardFormatA@4 10039274     user32:USER32.dll
 0002:00000278       __imp__HideCaret@4         10039278     user32:USER32.dll
 0002:0000027c       __imp__DestroyCaret@0      1003927c     user32:USER32.dll
 0002:00000280       __imp__CreateCaret@16      10039280     user32:USER32.dll
 0002:00000284       __imp__ShowCaret@4         10039284     user32:USER32.dll
 0002:00000288       __imp__ScreenToClient@8    10039288     user32:USER32.dll
 0002:0000028c       __imp__EmptyClipboard@0    1003928c     user32:USER32.dll
 0002:00000290       __imp__SystemParametersInfoA@16 10039290     user32:USER32.dll
 0002:00000294       __imp__AppendMenuA@16      10039294     user32:USER32.dll
 0002:00000298       __imp__OpenClipboard@4     10039298     user32:USER32.dll
 0002:0000029c       __imp__GetClipboardData@4  1003929c     user32:USER32.dll
 0002:000002a0       __imp__CloseClipboard@0    100392a0     user32:USER32.dll
 0002:000002a4       __imp__SetClipboardData@8  100392a4     user32:USER32.dll
 0002:000002a8       __imp__IsClipboardFormatAvailable@4 100392a8     user32:USER32.dll
 0002:000002ac       __imp__GetDlgCtrlID@4      100392ac     user32:USER32.dll
 0002:000002b0       __imp__GetScrollInfo@12    100392b0     user32:USER32.dll
 0002:000002b4       __imp__SetScrollInfo@16    100392b4     user32:USER32.dll
 0002:000002b8       __imp__ScrollWindow@20     100392b8     user32:USER32.dll
 0002:000002bc       __imp__UpdateWindow@4      100392bc     user32:USER32.dll
 0002:000002c0       __imp__SetTimer@16         100392c0     user32:USER32.dll
 0002:000002c4       __imp__KillTimer@8         100392c4     user32:USER32.dll
 0002:000002c8       __imp__GetKeyboardLayout@4 100392c8     user32:USER32.dll
 0002:000002cc       __imp__CreatePopupMenu@0   100392cc     user32:USER32.dll
 0002:000002d0       __imp__RegisterClassExA@4  100392d0     user32:USER32.dll
 0002:000002d4       __imp__ReleaseCapture@0    100392d4     user32:USER32.dll
 0002:000002d8       __imp__InflateRect@12      100392d8     user32:USER32.dll
 0002:000002dc       __imp__DrawTextW@20        100392dc     user32:USER32.dll
 0002:000002e0       __imp__DrawTextA@20        100392e0     user32:USER32.dll
 0002:000002e4       __imp__DrawFocusRect@8     100392e4     user32:USER32.dll
 0002:000002e8       __imp__GetDC@4             100392e8     user32:USER32.dll
 0002:000002ec       __imp__ReleaseDC@8         100392ec     user32:USER32.dll
 0002:000002f0       __imp__FrameRect@12        100392f0     user32:USER32.dll
 0002:000002f4       __imp__GetKeyState@4       100392f4     user32:USER32.dll
 0002:000002f8       __imp__GetDoubleClickTime@0 100392f8     user32:USER32.dll
 0002:000002fc       __imp__GetSysColor@4       100392fc     user32:USER32.dll
 0002:00000300       __imp__TrackPopupMenu@28   10039300     user32:USER32.dll
 0002:00000304       __imp__DestroyMenu@4       10039304     user32:USER32.dll
 0002:00000308       __imp__UnregisterClassA@8  10039308     user32:USER32.dll
 0002:0000030c       __imp__CallWindowProcA@20  1003930c     user32:USER32.dll
 0002:00000310       __imp__GetParent@4         10039310     user32:USER32.dll
 0002:00000314       __imp__BeginPaint@8        10039314     user32:USER32.dll
 0002:00000318       __imp__EndPaint@8          10039318     user32:USER32.dll
 0002:0000031c       __imp__DefWindowProcA@16   1003931c     user32:USER32.dll
 0002:00000320       \177USER32_NULL_THUNK_DATA 10039320     user32:USER32.dll
 0002:00000324       __imp__RevokeDragDrop@4    10039324     ole32:ole32.dll
 0002:00000328       __imp__OleUninitialize@0   10039328     ole32:ole32.dll
 0002:0000032c       __imp__DoDragDrop@16       1003932c     ole32:ole32.dll
 0002:00000330       __imp__OleInitialize@4     10039330     ole32:ole32.dll
 0002:00000334       __imp__RegisterDragDrop@8  10039334     ole32:ole32.dll
 0002:00000338       \177ole32_NULL_THUNK_DATA  10039338     ole32:ole32.dll
 0002:0000033c       ___xc_a                    1003933c     LIBCMT:crt0init.obj
 0002:00000364       ___xc_z                    10039364     LIBCMT:crt0init.obj
 0002:00000368       ___xi_a                    10039368     LIBCMT:crt0init.obj
 0002:00000380       ___xi_z                    10039380     LIBCMT:crt0init.obj
 0002:00000384       ___xp_a                    10039384     LIBCMT:crt0init.obj
 0002:00000390       ___xp_z                    10039390     LIBCMT:crt0init.obj
 0002:00000394       ___xt_a                    10039394     LIBCMT:crt0init.obj
 0002:00000398       ___xt_z                    10039398     LIBCMT:crt0init.obj
 0002:000003a4       ??_7Window@@6B@            100393a4     CallTip.obj
 0002:000003ac       ??_C@_0CC@DCACOJ@Bad?5GetCharRange?5?$CFd?5for?5?$CFd?5of?5?$CFd@ 100393ac     CellBuffer.obj
 0002:000003d4       ??_7ContractionState@@6B@  100393d4     ContractionState.obj
 0002:000003dc       ??_7PerLine@@6B@           100393dc     Document.obj
 0002:000003ec       ??_7RegexSearchBase@@6B@   100393ec     Document.obj
 0002:000003fc       ??_7CharacterIndexer@@6B@  100393fc     Document.obj
 0002:00000408       ??_7Document@@6B@          10039408     Document.obj
 0002:00000414       ??_C@_01LIIJDEN@?$AN?$AA@  10039414     Document.obj
 0002:00000418       ??_C@_01EEMJAFIK@?6?$AA@   10039418     Document.obj
 0002:00000420       ??_7BuiltinRegex@@6B@      10039420     Document.obj
 0002:00000430       ??_7DocumentIndexer@@6B@   10039430     Document.obj
 0002:0000043c       ??_7LineMarkers@@6B@       1003943c     Document.obj
 0002:0000044c       ??_7LineState@@6B@         1003944c     Document.obj
 0002:0000045c       ??_7LineAnnotation@@6B@    1003945c     Document.obj
 0002:0000046c       ??_7LineLevels@@6B@        1003946c     Document.obj
 0002:0000047c       ??_7Accessor@@6B@          1003947c     DocumentAccessor.obj
 0002:000004d8       ??_7DocWatcher@@6B@        100394d8     Editor.obj
 0002:000004f0       ??_C@_03KOLNNKD@BAD?$AA@   100394f0     Editor.obj
 0002:000004f4       ??_C@_02PLFPMECB@US?$AA@   100394f4     Editor.obj
 0002:000004f8       ??_C@_02POBANCKE@RS?$AA@   100394f8     Editor.obj
 0002:000004fc       ??_C@_02OEPNLDDP@GS?$AA@   100394fc     Editor.obj
 0002:00000500       ??_C@_02OFDPNJAI@FS?$AA@   10039500     Editor.obj
 0002:00000504       ??_C@_03MHNPAEMD@ESC?$AA@  10039504     Editor.obj
 0002:00000508       ??_C@_03KPDLEBHD@SUB?$AA@  10039508     Editor.obj
 0002:0000050c       ??_C@_02DDDIFIIO@EM?$AA@   1003950c     Editor.obj
 0002:00000510       ??_C@_03EILIFCEM@CAN?$AA@  10039510     Editor.obj
 0002:00000514       ??_C@_03NLILCDAH@ETB?$AA@  10039514     Editor.obj
 0002:00000518       ??_C@_03KJEPHBL@SYN?$AA@   10039518     Editor.obj
 0002:0000051c       ??_C@_03MHKFHONE@NAK?$AA@  1003951c     Editor.obj
 0002:00000520       ??_C@_03DDLCPOH@DC4?$AA@   10039520     Editor.obj
 0002:00000524       ??_C@_03EMHKLJCA@DC3?$AA@  10039524     Editor.obj
 0002:00000528       ??_C@_03FFGBIIGB@DC2?$AA@  10039528     Editor.obj
 0002:0000052c       ??_C@_03HOEMNLKC@DC1?$AA@  1003952c     Editor.obj
 0002:00000530       ??_C@_03DOEDCAGN@DLE?$AA@  10039530     Editor.obj
 0002:00000534       ??_C@_02EPPPECEI@SI?$AA@   10039534     Editor.obj
 0002:00000538       ??_C@_02BJKFOFMO@SO?$AA@   10039538     Editor.obj
 0002:0000053c       ??_C@_02PKOPCKKC@CR?$AA@   1003953c     Editor.obj
 0002:00000540       ??_C@_02NCIKDPBM@FF?$AA@   10039540     Editor.obj
 0002:00000544       ??_C@_02LGFIOMLP@VT?$AA@   10039544     Editor.obj
 0002:00000548       ??_C@_02NPBNLKMK@LF?$AA@   10039548     Editor.obj
 0002:0000054c       ??_C@_02KAOAGCMF@HT?$AA@   1003954c     Editor.obj
 0002:00000550       ??_C@_02OCDGHBNE@BS?$AA@   10039550     Editor.obj
 0002:00000554       ??_C@_03MFDLPPHH@BEL?$AA@  10039554     Editor.obj
 0002:00000558       ??_C@_03JMECLKOM@ACK?$AA@  10039558     Editor.obj
 0002:0000055c       ??_C@_03KLNFEEDD@ENQ?$AA@  1003955c     Editor.obj
 0002:00000560       ??_C@_03NHGANKEB@EOT?$AA@  10039560     Editor.obj
 0002:00000564       ??_C@_03GLKGNJNM@ETX?$AA@  10039564     Editor.obj
 0002:00000568       ??_C@_03BONENBJP@STX?$AA@  10039568     Editor.obj
 0002:0000056c       ??_C@_03EEGFIPFP@SOH?$AA@  1003956c     Editor.obj
 0002:00000570       ??_C@_03JDMLODLP@NUL?$AA@  10039570     Editor.obj
 0002:00000574       ??_C@_02PCIJFNDE@?$AN?6?$AA@ 10039574     Editor.obj
 0002:00000578       ??_C@_0P@CCAHDFEI@?$CFc?$CFc?5?$CF03X?5?$CF03X?$AA@ 10039578     Editor.obj
 0002:00000588       ??_C@_02DPKJAMEF@?$CFd?$AA@ 10039588     Editor.obj
 0002:0000058c       ??_C@_03BMNKJJEN@?$CF2X?$AA@ 1003958c     Editor.obj
 0002:00000590       ??_C@_05HIBFNGCI@?$CFd?5?5?5?$AA@ 10039590     Editor.obj
 0002:00000598       ??_C@_08LOKCHEOB@99999?5?5?5?$AA@ 10039598     Editor.obj
 0002:000005a4       ??_C@_03NDEAONJP@?5?5?5?$AA@ 100395a4     Editor.obj
 0002:000005ac       ??_7Editor@@6B@            100395ac     Editor.obj
 0002:0000065c       ??_C@_00CNPNBAHC@?$AA@     1003965c     Editor.obj
 0002:00000664       ??_7LexerModule@@6B@       10039664     ExternalLexer.obj
 0002:00000674       ??_7ExternalLexerModule@@6B@ 10039674     ExternalLexer.obj
 0002:00000684       ??_C@_01CLKCMJKC@?5?$AA@   10039684     ExternalLexer.obj
 0002:00000688       ??_C@_04MNHHNOLJ@Fold?$AA@ 10039688     ExternalLexer.obj
 0002:00000690       ??_C@_03KGIDDNFD@Lex?$AA@  10039690     ExternalLexer.obj
 0002:00000694       ??_C@_0N@IAAAMDFA@GetLexerName?$AA@ 10039694     ExternalLexer.obj
 0002:000006a4       ??_C@_0O@LKOONAOL@GetLexerCount?$AA@ 100396a4     ExternalLexer.obj
 0002:000006b8       ?MapDefault@KeyMap@@0QBVKeyToCommand@@B 100396b8     KeyMap.obj
 0002:00000a60       ??_C@_0BG@NIGODHBL@SGML?5and?5DTD?5keywords?$AA@ 10039a60     LexHTML.obj
 0002:00000a78       ??_C@_0N@EAPPEJJD@PHP?5keywords?$AA@ 10039a78     LexHTML.obj
 0002:00000a88       ??_C@_0BA@KDELBBJC@Python?5keywords?$AA@ 10039a88     LexHTML.obj
 0002:00000a98       ??_C@_0BC@CGOHNKBO@VBScript?5keywords?$AA@ 10039a98     LexHTML.obj
 0002:00000aac       ??_C@_0BE@LANFEFNM@JavaScript?5keywords?$AA@ 10039aac     LexHTML.obj
 0002:00000ac0       ??_C@_0BN@FHDAAOGH@HTML?5elements?5and?5attributes?$AA@ 10039ac0     LexHTML.obj
 0002:00000b18       ??_C@_03PJHHNEEI@xml?$AA@  10039b18     LexHTML.obj
 0002:00000b1c       ??_C@_03NMHPGDBB@php?$AA@  10039b1c     LexHTML.obj
 0002:00000b20       ??_C@_04MEENAGHB@jscr?$AA@ 10039b20     LexHTML.obj
 0002:00000b28       ??_C@_05EAFDFIPP@javas?$AA@ 10039b28     LexHTML.obj
 0002:00000b30       ??_C@_04CIOECGBI@pyth?$AA@ 10039b30     LexHTML.obj
 0002:00000b38       ??_C@_03NPKOOKNI@vbs?$AA@  10039b38     LexHTML.obj
 0002:00000b3c       ??_C@_03LOJEKLML@src?$AA@  10039b3c     LexHTML.obj
 0002:00000b40       ??_C@_07GJGNEJFD@comment?$AA@ 10039b40     LexHTML.obj
 0002:00000b48       ??_C@_06OLONEIEH@script?$AA@ 10039b48     LexHTML.obj
 0002:00000b50       ??_C@_0CA@KKGIOHJF@meta?5link?5img?5area?5br?5hr?5input?5?$AA@ 10039b50     LexHTML.obj
 0002:00000b70       ??_C@_03IBMCFENF@rem?$AA@  10039b70     LexHTML.obj
 0002:00000b74       ??_C@_03BHEEIFFN@def?$AA@  10039b74     LexHTML.obj
 0002:00000b78       ??_C@_05ENKANFLO@class?$AA@ 10039b78     LexHTML.obj
 0002:00000b80       ??_C@_07HKFAGCPM@?$FLCDATA?$FL?$AA@ 10039b80     LexHTML.obj
 0002:00000b88       ??_C@_04FFDNBKGC@?$DM?$CB?9?9?$AA@ 10039b88     LexHTML.obj
 0002:00000b90       ??_C@_03PNLDJJMO@?9?9?$DO?$AA@ 10039b90     LexHTML.obj
 0002:00000b94       ??_C@_05BMDAPFCP@?$DM?$DPphp?$AA@ 10039b94     LexHTML.obj
 0002:00000b9c       ??_C@_0L@FPFMPDDA@0123456789?$AA@ 10039b9c     LexHTML.obj
 0002:00000ba8       ??_C@_0BL@PIDGKGOO@ABCDEFGHIJKLMNOPQRSTUVWXYZ?$AA@ 10039ba8     LexHTML.obj
 0002:00000bc4       ??_C@_0BL@JIGBPIBD@abcdefghijklmnopqrstuvwxyz?$AA@ 10039bc4     LexHTML.obj
 0002:00000be0       ??_C@_0BA@IEIDKNKF@?4xXabcdefABCDEF?$AA@ 10039be0     LexHTML.obj
 0002:00000bf0       ??_C@_01GEODFPGF@?8?$AA@   10039bf0     LexHTML.obj
 0002:00000bf4       ??_C@_03DKMEACPB@?$DM?$DM?$DM?$AA@ 10039bf4     LexHTML.obj
 0002:00000bf8       ??_C@_01BJJEKLCA@?$CC?$AA@ 10039bf8     LexHTML.obj
 0002:00000bfc       ??_C@_07POJLBKCE@?4?9_?3?$CB?$CD?1?$AA@ 10039bfc     LexHTML.obj
 0002:00000c04       ??_C@_07LFMIKGNG@?4?9_?3?$CB?$CD?$FL?$AA@ 10039c04     LexHTML.obj
 0002:00000c0c       ??_C@_06OENAGPMB@?4?9_?3?$CB?$CD?$AA@ 10039c0c     LexHTML.obj
 0002:00000c14       ??_C@_0BI@KPMHLOBI@lexer?4xml?4allow?4scripts?$AA@ 10039c14     LexHTML.obj
 0002:00000c2c       ??_C@_0BJ@KEELFFOH@html?4tags?4case?4sensitive?$AA@ 10039c2c     LexHTML.obj
 0002:00000c48       ??_C@_0BH@GBOOICJN@fold?4hypertext?4heredoc?$AA@ 10039c48     LexHTML.obj
 0002:00000c60       ??_C@_0BH@OGPJLDMO@fold?4hypertext?4comment?$AA@ 10039c60     LexHTML.obj
 0002:00000c78       ??_C@_0N@CANAIILB@fold?4compact?$AA@ 10039c78     LexHTML.obj
 0002:00000c88       ??_C@_0BH@KBBGMFLC@fold?4html?4preprocessor?$AA@ 10039c88     LexHTML.obj
 0002:00000ca0       ??_C@_04MLGPBLN@fold?$AA@  10039ca0     LexHTML.obj
 0002:00000ca8       ??_C@_09ECBFGDBA@fold?4html?$AA@ 10039ca8     LexHTML.obj
 0002:00000cb4       ??_C@_0BF@DGBNIIPN@asp?4default?4language?$AA@ 10039cb4     LexHTML.obj
 0002:00000ccc       ??_C@_09KAGKDMLP@hypertext?$AA@ 10039ccc     LexHTML.obj
 0002:00000cd8       ??_C@_03CEKJBPHK@asp?$AA@  10039cd8     LexHTML.obj
 0002:00000cdc       ??_C@_09CIKJMIPL@phpscript?$AA@ 10039cdc     LexHTML.obj
 0002:00000ce8       ??_C@_09JPEDIMAC@Operators?$AA@ 10039ce8     LexMSSQL.obj
 0002:00000cf4       ??_C@_0BJ@KLHHAMEN@System?5Stored?5Procedures?$AA@ 10039cf4     LexMSSQL.obj
 0002:00000d10       ??_C@_09GLFFPDKE@Functions?$AA@ 10039d10     LexMSSQL.obj
 0002:00000d1c       ??_C@_0BB@INLDEFLJ@Global?5variables?$AA@ 10039d1c     LexMSSQL.obj
 0002:00000d30       ??_C@_0O@DFHHMAFJ@System?5tables?$AA@ 10039d30     LexMSSQL.obj
 0002:00000d40       ??_C@_0L@PAJDALGN@Data?5Types?$AA@ 10039d40     LexMSSQL.obj
 0002:00000d4c       ??_C@_0L@FJKBDHCL@Statements?$AA@ 10039d4c     LexMSSQL.obj
 0002:00000d78       ??_C@_03JBJLGPFL@end?$AA@  10039d78     LexMSSQL.obj
 0002:00000d7c       ??_C@_04CKOINMPC@case?$AA@ 10039d7c     LexMSSQL.obj
 0002:00000d84       ??_C@_05EAFKHBAM@begin?$AA@ 10039d84     LexMSSQL.obj
 0002:00000d8c       ??_C@_0N@DPBKNPIG@fold?4comment?$AA@ 10039d8c     LexMSSQL.obj
 0002:00000d9c       ??_C@_05KBNEPBHJ@mssql?$AA@ 10039d9c     LexMSSQL.obj
 0002:00000da4       ??_C@_0BA@KGLKDDAP@User?5Keywords?53?$AA@ 10039da4     LexMySQL.obj
 0002:00000db4       ??_C@_0BA@LPKBACEO@User?5Keywords?52?$AA@ 10039db4     LexMySQL.obj
 0002:00000dc4       ??_C@_0BA@JEIMFBIN@User?5Keywords?51?$AA@ 10039dc4     LexMySQL.obj
 0002:00000dd4       ??_C@_0BD@EPCBIJLO@Procedure?5keywords?$AA@ 10039dd4     LexMySQL.obj
 0002:00000de8       ??_C@_0BB@PODCHMNL@System?5Variables?$AA@ 10039de8     LexMySQL.obj
 0002:00000dfc       ??_C@_0BB@HHHCFMDA@Database?5Objects?$AA@ 10039dfc     LexMySQL.obj
 0002:00000e10       ??_C@_08CDHFLBJH@Keywords?$AA@ 10039e10     LexMySQL.obj
 0002:00000e1c       ??_C@_0P@LCPBGGBD@Major?5Keywords?$AA@ 10039e1c     LexMySQL.obj
 0002:00000e50       ??_C@_06LGDBIFHB@repeat?$AA@ 10039e50     LexMySQL.obj
 0002:00000e58       ??_C@_04DJNPKEDD@when?$AA@ 10039e58     LexMySQL.obj
 0002:00000e60       ??_C@_04HOHPNOOD@then?$AA@ 10039e60     LexMySQL.obj
 0002:00000e68       ??_C@_04FHMCPBIP@else?$AA@ 10039e68     LexMySQL.obj
 0002:00000e70       ??_C@_04GKOOIABA@loop?$AA@ 10039e70     LexMySQL.obj
 0002:00000e78       ??_C@_05OODBEKIG@while?$AA@ 10039e78     LexMySQL.obj
 0002:00000e80       ??_C@_02HEBPBKGD@if?$AA@   10039e80     LexMySQL.obj
 0002:00000e84       ??_C@_0BE@CONLADAH@fold?4sql?4only?4begin?$AA@ 10039e84     LexMySQL.obj
 0002:00000e98       ??_C@_05OLGEOJNI@mysql?$AA@ 10039e98     LexMySQL.obj
 0002:00000ea0       ??_C@_0BA@OJPLKFMI@User?5Keywords?54?$AA@ 10039ea0     LexSQL.obj
 0002:00000eb0       ??_C@_08PBPCFLBJ@SQL?$CKPlus?$AA@ 10039eb0     LexSQL.obj
 0002:00000ebc       ??_C@_05MGJNJIPA@PLDoc?$AA@ 10039ebc     LexSQL.obj
 0002:00000ee8       ??_C@_03JPKPEJFO@?1?$CK?$CB?$AA@ 10039ee8     LexSQL.obj
 0002:00000eec       ??_C@_03HMFLJAJF@?1?$CK?$CK?$AA@ 10039eec     LexSQL.obj
 0002:00000ef0       ??_C@_03JEELCJ@pro?$AA@    10039ef0     LexSQL.obj
 0002:00000ef4       ??_C@_0BP@NAECIDKH@lexer?4sql?4backticks?4identifier?$AA@ 10039ef4     LexSQL.obj
 0002:00000f14       ??_C@_0BG@PGLAJBNK@sql?4backslash?4escapes?$AA@ 10039f14     LexSQL.obj
 0002:00000f2c       ??_C@_06OGCODMJI@exists?$AA@ 10039f2c     LexSQL.obj
 0002:00000f34       ??_C@_03DLEKAJFN@sql?$AA@  10039f34     LexSQL.obj
 0002:00000f4c       ??_7Surface@@6B@           10039f4c     PlatWin.obj
 0002:00000fe0       ??_7DynamicLibrary@@6B@    10039fe0     PlatWin.obj
 0002:00000ff0       ??_7Font@@6B@              10039ff0     PlatWin.obj
 0002:00001004       ??_7SurfaceImpl@@6B@       1003a004     PlatWin.obj
 0002:00001094       ??_C@_08MGLFJAGK@SciLexer?$AA@ 1003a094     PlatWin.obj
 0002:000010a0       ??_C@_09HHNPOBHJ@Scintilla?$AA@ 1003a0a0     PlatWin.obj
 0002:000010b4       ??_7ListBox@@6B@           1003a0b4     PlatWin.obj
 0002:00001100       ??_C@_07EHHHOIHI@Verdana?$AA@ 1003a100     PlatWin.obj
 0002:0000110c       ??_7FontCached@@6B@        1003a10c     PlatWin.obj
 0002:0000111c       ??_7ListBoxX@@6B@          1003a11c     PlatWin.obj
 0002:00001168       ??_C@_07LHBBOFFP@listbox?$AA@ 1003a168     PlatWin.obj
 0002:00001174       ??_7DynamicLibraryImpl@@6B@ 1003a174     PlatWin.obj
 0002:00001180       ??_C@_0L@MHHLCNNL@AlphaBlend?$AA@ 1003a180     PlatWin.obj
 0002:0000118c       ??_C@_07NGDABAHA@Msimg32?$AA@ 1003a18c     PlatWin.obj
 0002:00001198       ??_7LineLayout@@6B@        1003a198     PositionCache.obj
 0002:000011a0       ??_7LineLayoutCache@@6B@   1003a1a0     PositionCache.obj
 0002:000011a4       ??_C@_01PKGAHCOL@?$CJ?$AA@ 1003a1a4     PropSet.obj
 0002:000011a8       ??_C@_02GCKHGGHL@$?$CI?$AA@ 1003a1a8     PropSet.obj
 0002:000011b4       ??_C@_0BP@PJIIOEJI@No?5previous?5regular?5expression?$AA@ 1003a1b4     RESearch.obj
 0002:000011d4       ??_C@_0BH@PBJHAJHP@Null?5pattern?5inside?5?$CI?$CJ?$AA@ 1003a1d4     RESearch.obj
 0002:000011ec       ??_C@_0BA@JAHIKIMJ@Illegal?5closure?$AA@ 1003a1ec     RESearch.obj
 0002:000011fc       ??_C@_0O@GCBPMNL@Empty?5closure?$AA@ 1003a1fc     RESearch.obj
 0002:0000120c       ??_C@_09OAPOENFO@Missing?5?$FN?$AA@ 1003a20c     RESearch.obj
 0002:00001218       ??_C@_0N@HOADKJBO@Unmatched?5?2?$CJ?$AA@ 1003a218     RESearch.obj
 0002:00001228       ??_C@_0BJ@EEHFEFFP@Null?5pattern?5inside?5?2?$CI?2?$CJ?$AA@ 1003a228     RESearch.obj
 0002:00001244       ??_C@_0BE@PMNAHDDK@Too?5many?5?2?$CI?2?$CJ?5pairs?$AA@ 1003a244     RESearch.obj
 0002:00001258       ??_C@_0BH@IEGHEGDJ@Undetermined?5reference?$AA@ 1003a258     RESearch.obj
 0002:00001270       ??_C@_0BD@ENBHLCOG@Cyclical?5reference?$AA@ 1003a270     RESearch.obj
 0002:00001284       ??_C@_0BJ@JOINABAB@Null?5pattern?5inside?5?2?$DM?2?$DO?$AA@ 1003a284     RESearch.obj
 0002:000012a0       ??_C@_0BB@ILDLNKCD@Pattern?5too?5long?$AA@ 1003a2a0     RESearch.obj
 0002:000012b4       ??_C@_0N@GHBIJIFP@Unmatched?5?2?$CI?$AA@ 1003a2b4     RESearch.obj
 0002:000012c4       ??_C@_0M@LLDEIHJD@Unmatched?5?$CI?$AA@ 1003a2c4     RESearch.obj
 0002:000012d0       ??_C@_0M@KCCPLGNC@Unmatched?5?$CJ?$AA@ 1003a2d0     RESearch.obj
 0002:000012dc       ??_C@_0BC@MEOMEKMJ@Too?5many?5?$CI?$CJ?5pairs?$AA@ 1003a2dc     RESearch.obj
 0002:000012f4       ??_7DocumentAccessor@@6B@  1003a2f4     ScintillaBase.obj
 0002:00001354       ??_7ScintillaBase@@6B@     1003a354     ScintillaBase.obj
 0002:0000140c       ??_C@_0L@CALHPJHB@Select?5All?$AA@ 1003a40c     ScintillaBase.obj
 0002:00001418       ??_C@_06JBKGCNBB@Delete?$AA@ 1003a418     ScintillaBase.obj
 0002:00001420       ??_C@_05NEBJFIEK@Paste?$AA@ 1003a420     ScintillaBase.obj
 0002:00001428       ??_C@_04OPMHGHMB@Copy?$AA@ 1003a428     ScintillaBase.obj
 0002:00001430       ??_C@_03EOHDMBHJ@Cut?$AA@  1003a430     ScintillaBase.obj
 0002:00001434       ??_C@_04NKENIHOM@Redo?$AA@ 1003a434     ScintillaBase.obj
 0002:0000143c       ??_C@_04LPGMNMPN@Undo?$AA@ 1003a43c     ScintillaBase.obj
 0002:0000145c       ??_7ScintillaWin@@6B@      1003a45c     ScintillaWin.obj
 0002:0000151c       ??_C@_0BA@GGJDECLC@MSDEVLineSelect?$AA@ 1003a51c     ScintillaWin.obj
 0002:0000152c       ??_C@_0BC@HHCLHOOE@MSDEVColumnSelect?$AA@ 1003a52c     ScintillaWin.obj
 0002:00001540       ??_C@_08FFGODKIL@ACallTip?$AA@ 1003a540     ScintillaWin.obj
 0002:0000154c       ??_C@_1BE@FFNKBBML@?$AAS?$AAc?$AAi?$AAn?$AAt?$AAi?$AAl?$AAl?$AAa?$AA?$AA@ 1003a54c     ScintillaWin.obj
 0002:00001560       ??_C@_09HHKJMCAF@?1?$CK?5XPM?5?$CK?1?$AA@ 1003a560     XPM.obj
 0002:0000156c       ??_C@_04PPOMGONB@?1?$CK?5X?$AA@ 1003a56c     XPM.obj
 0002:00001574       _IID_IEnumFORMATETC        1003a574     uuid:objidl_i.obj
 0002:00001584       _IID_IDataObject           1003a584     uuid:objidl_i.obj
 0002:00001594       _IID_IDropSource           1003a594     uuid:oleidl_i.obj
 0002:000015a4       _IID_IDropTarget           1003a5a4     uuid:oleidl_i.obj
 0002:000015b4       _IID_IUnknown              1003a5b4     uuid:unknwn_i.obj
 0002:000015c4       ??_C@_0P@GHFPNOJB@bad?5allocation?$AA@ 1003a5c4     LIBCMT:typinfo.obj
 0002:000015d8       ??_7type_info@@6B@         1003a5d8     LIBCMT:typinfo.obj
 0002:000015e0       ??_7bad_alloc@std@@6B@     1003a5e0     LIBCMT:new.obj
 0002:000015e8       __FPinit                   1003a5e8     LIBCMT:_fpinit_.obj
 0002:000015ec       __FPmtinit                 1003a5ec     LIBCMT:_fpinit_.obj
 0002:000015f0       __FPmtterm                 1003a5f0     LIBCMT:_fpinit_.obj
 0002:000015f4       __pRawDllMain              1003a5f4     LIBCMT:dllcrt0.obj
 0002:000015f4       __pDefaultRawDllMain       1003a5f4     LIBCMT:dllcrt0.obj
 0002:00001600       __pDestructExceptionObject 1003a600     LIBCMT:frame.obj
 0002:00001608       ??_7bad_exception@std@@6B@ 1003a608     LIBCMT:frame.obj
 0002:00001610       ??_C@_0O@DPKOEFFH@bad?5exception?$AA@ 1003a610     LIBCMT:frame.obj
 0002:00001620       ??_C@_0O@NLDKAIKN@EncodePointer?$AA@ 1003a620     LIBCMT:tidtable.obj
 0002:00001630       ??_C@_1BK@DBDEIDLH@?$AAK?$AAE?$AAR?$AAN?$AAE?$AAL?$AA3?$AA2?$AA?4?$AAD?$AAL?$AAL?$AA?$AA@ 1003a630     LIBCMT:tidtable.obj
 0002:0000164c       ??_C@_0O@KBPMFGHI@DecodePointer?$AA@ 1003a64c     LIBCMT:tidtable.obj
 0002:0000165c       ??_C@_07PEJMOBNF@FlsFree?$AA@ 1003a65c     LIBCMT:tidtable.obj
 0002:00001664       ??_C@_0M@JCPCPOEF@FlsSetValue?$AA@ 1003a664     LIBCMT:tidtable.obj
 0002:00001670       ??_C@_0M@GDNOONDI@FlsGetValue?$AA@ 1003a670     LIBCMT:tidtable.obj
 0002:0000167c       ??_C@_08KNHFBNJ@FlsAlloc?$AA@ 1003a67c     LIBCMT:tidtable.obj
 0002:0000168c       ??_7exception@std@@6B@     1003a68c     LIBCMT:stdexcpt.obj
 0002:00001694       ??_C@_0BC@EOODALEL@Unknown?5exception?$AA@ 1003a694     LIBCMT:stdexcpt.obj
 0002:00001748       ??_C@_01NEMOKFLO@?$DN?$AA@ 1003a748     LIBCMT:setlocal.obj
 0002:0000174c       ??_C@_0P@GGKDKEEG@runtime?5error?5?$AA@ 1003a74c     LIBCMT:crt0msg.obj
 0002:0000175c       ??_C@_0O@MJNIPGOH@TLOSS?5error?$AN?6?$AA@ 1003a75c     LIBCMT:crt0msg.obj
 0002:0000176c       ??_C@_0N@BONNPDHF@SING?5error?$AN?6?$AA@ 1003a76c     LIBCMT:crt0msg.obj
 0002:0000177c       ??_C@_0P@MBDAJNE@DOMAIN?5error?$AN?6?$AA@ 1003a77c     LIBCMT:crt0msg.obj
 0002:00001790       ??_C@_0JL@DFDOOABL@R6034?$AN?6An?5application?5has?5made?5a@ 1003a790     LIBCMT:crt0msg.obj
 0002:00001830       ??_C@_0PH@EPAFIJ@R6033?$AN?6?9?5Attempt?5to?5use?5MSIL?5cod@ 1003a830     LIBCMT:crt0msg.obj
 0002:00001928       ??_C@_0DD@BKEEABMM@R6032?$AN?6?9?5not?5enough?5space?5for?5lo@ 1003a928     LIBCMT:crt0msg.obj
 0002:00001960       ??_C@_0GD@OFKILIED@R6031?$AN?6?9?5Attempt?5to?5initialize?5t@ 1003a960     LIBCMT:crt0msg.obj
 0002:000019c4       ??_C@_0BP@LPMHJOKI@R6030?$AN?6?9?5CRT?5not?5initialized?$AN?6?$AA@ 1003a9c4     LIBCMT:crt0msg.obj
 0002:000019e4       ??_C@_0CF@KJDAIALP@R6028?$AN?6?9?5unable?5to?5initialize?5he@ 1003a9e4     LIBCMT:crt0msg.obj
 0002:00001a0c       ??_C@_0DF@GAKBPDFP@R6027?$AN?6?9?5not?5enough?5space?5for?5lo@ 1003aa0c     LIBCMT:crt0msg.obj
 0002:00001a44       ??_C@_0DF@IBLNNAIG@R6026?$AN?6?9?5not?5enough?5space?5for?5st@ 1003aa44     LIBCMT:crt0msg.obj
 0002:00001a7c       ??_C@_0CG@IOHKGFNJ@R6025?$AN?6?9?5pure?5virtual?5function?5c@ 1003aa7c     LIBCMT:crt0msg.obj
 0002:00001aa4       ??_C@_0DF@JIJJFJDC@R6024?$AN?6?9?5not?5enough?5space?5for?5_o@ 1003aaa4     LIBCMT:crt0msg.obj
 0002:00001adc       ??_C@_0CJ@EGEJHFME@R6019?$AN?6?9?5unable?5to?5open?5console?5@ 1003aadc     LIBCMT:crt0msg.obj
 0002:00001b08       ??_C@_0CB@GNHNIELH@R6018?$AN?6?9?5unexpected?5heap?5error?$AN?6@ 1003ab08     LIBCMT:crt0msg.obj
 0002:00001b2c       ??_C@_0CN@FOLDKNG@R6017?$AN?6?9?5unexpected?5multithread?5@ 1003ab2c     LIBCMT:crt0msg.obj
 0002:00001b5c       ??_C@_0CM@FAHFJNHO@R6016?$AN?6?9?5not?5enough?5space?5for?5th@ 1003ab5c     LIBCMT:crt0msg.obj
 0002:00001b88       ??_C@_0JG@LBKMGKLD@?$AN?6This?5application?5has?5requested@ 1003ab88     LIBCMT:crt0msg.obj
 0002:00001c20       ??_C@_0CM@FLCNIPKK@R6009?$AN?6?9?5not?5enough?5space?5for?5en@ 1003ac20     LIBCMT:crt0msg.obj
 0002:00001c4c       ??_C@_0CK@KMMJOAPP@R6008?$AN?6?9?5not?5enough?5space?5for?5ar@ 1003ac4c     LIBCMT:crt0msg.obj
 0002:00001c78       ??_C@_0CN@LEKKICBM@R6002?$AN?6?9?5floating?5point?5support?5@ 1003ac78     LIBCMT:crt0msg.obj
 0002:00001ca8       ??_C@_0CF@GOGNBNAK@Microsoft?5Visual?5C?$CL?$CL?5Runtime?5Lib@ 1003aca8     LIBCMT:crt0msg.obj
 0002:00001cd0       ??_C@_02PHMGELLB@?6?6?$AA@ 1003acd0     LIBCMT:crt0msg.obj
 0002:00001cd4       ??_C@_03KHICJKCI@?4?4?4?$AA@ 1003acd4     LIBCMT:crt0msg.obj
 0002:00001cd8       ??_C@_0BH@DNAGHKFM@?$DMprogram?5name?5unknown?$DO?$AA@ 1003acd8     LIBCMT:crt0msg.obj
 0002:00001cf0       ??_C@_0BK@OFGJDLJJ@Runtime?5Error?$CB?6?6Program?3?5?$AA@ 1003acf0     LIBCMT:crt0msg.obj
 0002:00001d0c       ??_C@_1O@CEDCILHN@?$AA?$CI?$AAn?$AAu?$AAl?$AAl?$AA?$CJ?$AA?$AA@ 1003ad0c     LIBCMT:output.obj
 0002:00001d1c       ??_C@_06OJHGLDPL@?$CInull?$CJ?$AA@ 1003ad1c     LIBCMT:output.obj
 0002:00001d28       ___lookuptable             1003ad28     LIBCMT:output.obj
 0002:00001d84       ??_C@_13NOLLCAOD@?$AA?$AA?$AA?$AA@ 1003ad84     LIBCMT:a_map.obj
 0002:00001d88       ??_C@_0P@MIGLKIOC@CorExitProcess?$AA@ 1003ad88     LIBCMT:crt0dat.obj
 0002:00001d98       ??_C@_1BI@BGOHAHKC@?$AAm?$AAs?$AAc?$AAo?$AAr?$AAe?$AAe?$AA?4?$AAd?$AAl?$AAl?$AA?$AA@ 1003ad98     LIBCMT:crt0dat.obj
 0002:00001db0       ??_C@_05KLBDPFGC@e?$CL000?$AA@ 1003adb0     LIBCMT:cvt.obj
 0002:00001db8       __real@4150017ec0000000    1003adb8     LIBCMT:_testfdiv_.obj
 0002:00001dc0       __real@4147ffff80000000    1003adc0     LIBCMT:_testfdiv_.obj
 0002:00001dc8       ??_C@_0BK@NHEOCAHP@IsProcessorFeaturePresent?$AA@ 1003adc8     LIBCMT:_testfdiv_.obj
 0002:00001de4       ??_C@_08CPNIBGIE@KERNEL32?$AA@ 1003ade4     LIBCMT:_testfdiv_.obj
 0002:00001df0       __XcptActTab               1003adf0     LIBCMT:winxfltr.obj
 0002:00001e68       ??_C@_0BK@CFCOFLF@?5Complete?5Object?5Locator?8?$AA@ 1003ae68     LIBCMT:undname.obj
 0002:00001e84       ??_C@_0BN@MECKDCOJ@?5Class?5Hierarchy?5Descriptor?8?$AA@ 1003ae84     LIBCMT:undname.obj
 0002:00001ea4       ??_C@_0BD@LGICGFMM@?5Base?5Class?5Array?8?$AA@ 1003aea4     LIBCMT:undname.obj
 0002:00001eb8       ??_C@_0BM@LDKODKLH@?5Base?5Class?5Descriptor?5at?5?$CI?$AA@ 1003aeb8     LIBCMT:undname.obj
 0002:00001ed4       ??_C@_0BC@DAFEJGAK@?5Type?5Descriptor?8?$AA@ 1003aed4     LIBCMT:undname.obj
 0002:00001ee8       ??_C@_0BM@PMGGMLDN@?$GAlocal?5static?5thread?5guard?8?$AA@ 1003aee8     LIBCMT:undname.obj
 0002:00001f04       ??_C@_0CL@FGIJHLCE@?$GAmanaged?5vector?5copy?5constructor@ 1003af04     LIBCMT:undname.obj
 0002:00001f30       ??_C@_0CJ@GJELGAMM@?$GAvector?5vbase?5copy?5constructor?5i@ 1003af30     LIBCMT:undname.obj
 0002:00001f5c       ??_C@_0CD@CGAJBKEJ@?$GAvector?5copy?5constructor?5iterato@ 1003af5c     LIBCMT:undname.obj
 0002:00001f80       ??_C@_0CB@PDBIFEP@?$GAdynamic?5atexit?5destructor?5for?5?8@ 1003af80     LIBCMT:undname.obj
 0002:00001fa4       ??_C@_0BL@CLIPGLGB@?$GAdynamic?5initializer?5for?5?8?$AA@ 1003afa4     LIBCMT:undname.obj
 0002:00001fc0       ??_C@_0CM@FCBBDIGB@?$GAeh?5vector?5vbase?5copy?5constructo@ 1003afc0     LIBCMT:undname.obj
 0002:00001fec       ??_C@_0CG@HLDDJMAG@?$GAeh?5vector?5copy?5constructor?5iter@ 1003afec     LIBCMT:undname.obj
 0002:00002014       ??_C@_0CF@IMGKMJNO@?$GAmanaged?5vector?5destructor?5itera@ 1003b014     LIBCMT:undname.obj
 0002:0000203c       ??_C@_0CG@CFDHKGGD@?$GAmanaged?5vector?5constructor?5iter@ 1003b03c     LIBCMT:undname.obj
 0002:00002064       ??_C@_0BN@CKNJLHMB@?$GAplacement?5delete?$FL?$FN?5closure?8?$AA@ 1003b064     LIBCMT:undname.obj
 0002:00002084       ??_C@_0BL@CNOONJFP@?$GAplacement?5delete?5closure?8?$AA@ 1003b084     LIBCMT:undname.obj
 0002:000020a0       ??_C@_0P@HJKNJFNN@?$GAomni?5callsig?8?$AA@ 1003b0a0     LIBCMT:undname.obj
 0002:000020b0       ??_C@_09LBNFPBCA@?5delete?$FL?$FN?$AA@ 1003b0b0     LIBCMT:undname.obj
 0002:000020bc       ??_C@_06FHBGPFGH@?5new?$FL?$FN?$AA@ 1003b0bc     LIBCMT:undname.obj
 0002:000020c4       ??_C@_0CE@IIHCMGGL@?$GAlocal?5vftable?5constructor?5closu@ 1003b0c4     LIBCMT:undname.obj
 0002:000020e8       ??_C@_0BA@KKLDJDLB@?$GAlocal?5vftable?8?$AA@ 1003b0e8     LIBCMT:undname.obj
 0002:000020f8       ??_C@_05KHLCHHI@?$GARTTI?$AA@ 1003b0f8     LIBCMT:undname.obj
 0002:00002100       ??_C@_03KLGMFNMG@?$GAEH?$AA@ 1003b100     LIBCMT:undname.obj
 0002:00002104       ??_C@_0BA@KBCDOMBN@?$GAudt?5returning?8?$AA@ 1003b104     LIBCMT:undname.obj
 0002:00002114       ??_C@_0BL@LLKPOHJI@?$GAcopy?5constructor?5closure?8?$AA@ 1003b114     LIBCMT:undname.obj
 0002:00002130       ??_C@_0CH@OOJPLCPH@?$GAeh?5vector?5vbase?5constructor?5ite@ 1003b130     LIBCMT:undname.obj
 0002:00002158       ??_C@_0CA@GCEOPDGL@?$GAeh?5vector?5destructor?5iterator?8?$AA@ 1003b158     LIBCMT:undname.obj
 0002:00002178       ??_C@_0CB@JONCMFFK@?$GAeh?5vector?5constructor?5iterator?8@ 1003b178     LIBCMT:undname.obj
 0002:0000219c       ??_C@_0BL@NILFHHPC@?$GAvirtual?5displacement?5map?8?$AA@ 1003b19c     LIBCMT:undname.obj
 0002:000021b8       ??_C@_0CE@IKBNEHA@?$GAvector?5vbase?5constructor?5iterat@ 1003b1b8     LIBCMT:undname.obj
 0002:000021dc       ??_C@_0BN@LFPFMEDL@?$GAvector?5destructor?5iterator?8?$AA@ 1003b1dc     LIBCMT:undname.obj
 0002:000021fc       ??_C@_0BO@PFGOCPJJ@?$GAvector?5constructor?5iterator?8?$AA@ 1003b1fc     LIBCMT:undname.obj
 0002:0000221c       ??_C@_0BN@IMDCHIKM@?$GAscalar?5deleting?5destructor?8?$AA@ 1003b21c     LIBCMT:undname.obj
 0002:0000223c       ??_C@_0BO@OBMKPJIG@?$GAdefault?5constructor?5closure?8?$AA@ 1003b23c     LIBCMT:undname.obj
 0002:0000225c       ??_C@_0BN@DEGPLNFK@?$GAvector?5deleting?5destructor?8?$AA@ 1003b25c     LIBCMT:undname.obj
 0002:0000227c       ??_C@_0BD@JDLKDPAB@?$GAvbase?5destructor?8?$AA@ 1003b27c     LIBCMT:undname.obj
 0002:00002290       ??_C@_08OBABFOLI@?$GAstring?8?$AA@ 1003b290     LIBCMT:undname.obj
 0002:0000229c       ??_C@_0BF@KDPPACIK@?$GAlocal?5static?5guard?8?$AA@ 1003b29c     LIBCMT:undname.obj
 0002:000022b4       ??_C@_08LLFFHHDJ@?$GAtypeof?8?$AA@ 1003b2b4     LIBCMT:undname.obj
 0002:000022c0       ??_C@_07FEEIOKP@?$GAvcall?8?$AA@ 1003b2c0     LIBCMT:undname.obj
 0002:000022c8       ??_C@_09BLBHBJP@?$GAvbtable?8?$AA@ 1003b2c8     LIBCMT:undname.obj
 0002:000022d4       ??_C@_09IFPLHPGF@?$GAvftable?8?$AA@ 1003b2d4     LIBCMT:undname.obj
 0002:000022e0       ??_C@_02MHEGNOJ@?$FO?$DN?$AA@ 1003b2e0     LIBCMT:undname.obj
 0002:000022e4       ??_C@_02DHLNPPGH@?$HM?$DN?$AA@ 1003b2e4     LIBCMT:undname.obj
 0002:000022e8       ??_C@_02FGJGFEAB@?$CG?$DN?$AA@ 1003b2e8     LIBCMT:undname.obj
 0002:000022ec       ??_C@_03CDNPDDLA@?$DM?$DM?$DN?$AA@ 1003b2ec     LIBCMT:undname.obj
 0002:000022f0       ??_C@_03IKFCCPFF@?$DO?$DO?$DN?$AA@ 1003b2f0     LIBCMT:undname.obj
 0002:000022f4       ??_C@_02FENAOKFI@?$CF?$DN?$AA@ 1003b2f4     LIBCMT:undname.obj
 0002:000022f8       ??_C@_02FJEHGPIO@?1?$DN?$AA@ 1003b2f8     LIBCMT:undname.obj
 0002:000022fc       ??_C@_02FKMDLLOA@?9?$DN?$AA@ 1003b2fc     LIBCMT:undname.obj
 0002:00002300       ??_C@_02FOEOMHFC@?$CL?$DN?$AA@ 1003b300     LIBCMT:undname.obj
 0002:00002304       ??_C@_02FPIMKNGF@?$CK?$DN?$AA@ 1003b304     LIBCMT:undname.obj
 0002:00002308       ??_C@_02NONPIBCD@?$HM?$HM?$AA@ 1003b308     LIBCMT:undname.obj
 0002:0000230c       ??_C@_02PPKAJPJL@?$CG?$CG?$AA@ 1003b30c     LIBCMT:undname.obj
 0002:00002310       ??_C@_01DNKMNLPK@?$HM?$AA@ 1003b310     LIBCMT:undname.obj
 0002:00002314       ??_C@_01JKBOJNNK@?$FO?$AA@ 1003b314     LIBCMT:undname.obj
 0002:00002318       ??_C@_01PJKLJHI@?$HO?$AA@  1003b318     LIBCMT:undname.obj
 0002:0000231c       ??_C@_02HCKGKOFO@?$CI?$CJ?$AA@ 1003b31c     LIBCMT:undname.obj
 0002:00002320       ??_C@_01IHBHIGKO@?0?$AA@   1003b320     LIBCMT:undname.obj
 0002:00002324       ??_C@_02EEKDKGMJ@?$DO?$DN?$AA@ 1003b324     LIBCMT:undname.obj
 0002:00002328       ??_C@_01PPODPGHN@?$DO?$AA@ 1003b328     LIBCMT:undname.obj
 0002:0000232c       ??_C@_02EHCHHCKH@?$DM?$DN?$AA@ 1003b32c     LIBCMT:undname.obj
 0002:00002330       ??_C@_01MNNFJEPP@?$DM?$AA@ 1003b330     LIBCMT:undname.obj
 0002:00002334       ??_C@_01FGNFDNOH@?$CF?$AA@ 1003b334     LIBCMT:undname.obj
 0002:00002338       ??_C@_01KMDKNFGN@?1?$AA@   1003b338     LIBCMT:undname.obj
 0002:0000233c       ??_C@_03MNHNFDLC@?9?$DO?$CK?$AA@ 1003b33c     LIBCMT:undname.obj
 0002:00002340       ??_C@_01HNPIGOCE@?$CG?$AA@ 1003b340     LIBCMT:undname.obj
 0002:00002344       ??_C@_01MIFGBAGJ@?$CL?$AA@ 1003b344     LIBCMT:undname.obj
 0002:00002348       ??_C@_01JOAMLHOP@?9?$AA@   1003b348     LIBCMT:undname.obj
 0002:0000234c       ??_C@_02BAABKJLB@?9?9?$AA@ 1003b34c     LIBCMT:undname.obj
 0002:00002350       ??_C@_02ECNGHCIF@?$CL?$CL?$AA@ 1003b350     LIBCMT:undname.obj
 0002:00002354       ??_C@_01NBENCBCI@?$CK?$AA@ 1003b354     LIBCMT:undname.obj
 0002:00002358       ??_C@_02HBOOOICD@?9?$DO?$AA@ 1003b358     LIBCMT:undname.obj
 0002:0000235c       ??_C@_08LHJFAFGD@operator?$AA@ 1003b35c     LIBCMT:undname.obj
 0002:00002368       ??_C@_02GPECMEKF@?$FL?$FN?$AA@ 1003b368     LIBCMT:undname.obj
 0002:0000236c       ??_C@_02FDNJECIE@?$CB?$DN?$AA@ 1003b36c     LIBCMT:undname.obj
 0002:00002370       ??_C@_02EGOFBIJA@?$DN?$DN?$AA@ 1003b370     LIBCMT:undname.obj
 0002:00002374       ??_C@_01DCLJPIOD@?$CB?$AA@ 1003b374     LIBCMT:undname.obj
 0002:00002378       ??_C@_02FODMEDOG@?$DM?$DM?$AA@ 1003b378     LIBCMT:undname.obj
 0002:0000237c       ??_C@_02GPIOPFAK@?$DO?$DO?$AA@ 1003b37c     LIBCMT:undname.obj
 0002:00002380       ??_C@_07FPCDHGMM@?5delete?$AA@ 1003b380     LIBCMT:undname.obj
 0002:00002388       ??_C@_04NIHEBCM@?5new?$AA@ 1003b388     LIBCMT:undname.obj
 0002:00002390       ??_C@_0M@GFIIJFMG@__unaligned?$AA@ 1003b390     LIBCMT:undname.obj
 0002:0000239c       ??_C@_0L@PILCLIHE@__restrict?$AA@ 1003b39c     LIBCMT:undname.obj
 0002:000023a8       ??_C@_07JOMMBBKO@__ptr64?$AA@ 1003b3a8     LIBCMT:undname.obj
 0002:000023b0       ??_C@_09HIJEGCPM@__clrcall?$AA@ 1003b3b0     LIBCMT:undname.obj
 0002:000023bc       ??_C@_0L@JMKHOMEK@__fastcall?$AA@ 1003b3bc     LIBCMT:undname.obj
 0002:000023c8       ??_C@_0L@NPHFGOKO@__thiscall?$AA@ 1003b3c8     LIBCMT:undname.obj
 0002:000023d4       ??_C@_09IFJBGAPI@__stdcall?$AA@ 1003b3d4     LIBCMT:undname.obj
 0002:000023e0       ??_C@_08GHMPAG@__pascal?$AA@ 1003b3e0     LIBCMT:undname.obj
 0002:000023ec       ??_C@_07KOLFKCDI@__cdecl?$AA@ 1003b3ec     LIBCMT:undname.obj
 0002:000023f4       ??_C@_08EHJDFFNH@__based?$CI?$AA@ 1003b3f4     LIBCMT:undname.obj
 0002:00002580       ___newctype                1003b580     LIBCMT:ctype.obj
 0002:00002880       __wctype                   1003b880     LIBCMT:ctype.obj
 0002:00002a88       ___newclmap                1003ba88     LIBCMT:ctype.obj
 0002:00002c08       ___newcumap                1003bc08     LIBCMT:ctype.obj
 0002:00002d88       ??_C@_08JCCMCCIL@HH?3mm?3ss?$AA@ 1003bd88     LIBCMT:strftime.obj
 0002:00002d94       ??_C@_0BE@CKGJFCPC@dddd?0?5MMMM?5dd?0?5yyyy?$AA@ 1003bd94     LIBCMT:strftime.obj
 0002:00002da8       ??_C@_08BPBNCDIB@MM?1dd?1yy?$AA@ 1003bda8     LIBCMT:strftime.obj
 0002:00002db4       ??_C@_02CJNFDJBF@PM?$AA@   1003bdb4     LIBCMT:strftime.obj
 0002:00002db8       ??_C@_02DEDBPAFC@AM?$AA@   1003bdb8     LIBCMT:strftime.obj
 0002:00002dbc       ??_C@_08EDHMEBNP@December?$AA@ 1003bdbc     LIBCMT:strftime.obj
 0002:00002dc8       ??_C@_08HCHEGEOA@November?$AA@ 1003bdc8     LIBCMT:strftime.obj
 0002:00002dd4       ??_C@_07JJNFCEND@October?$AA@ 1003bdd4     LIBCMT:strftime.obj
 0002:00002ddc       ??_C@_09BHHEALKD@September?$AA@ 1003bddc     LIBCMT:strftime.obj
 0002:00002de8       ??_C@_06LBBHFDDG@August?$AA@ 1003bde8     LIBCMT:strftime.obj
 0002:00002df0       ??_C@_04MIEPOIFP@July?$AA@ 1003bdf0     LIBCMT:strftime.obj
 0002:00002df8       ??_C@_04CNLMGBGM@June?$AA@ 1003bdf8     LIBCMT:strftime.obj
 0002:00002e00       ??_C@_05DMJDNLEJ@April?$AA@ 1003be00     LIBCMT:strftime.obj
 0002:00002e08       ??_C@_05HPCKOFNC@March?$AA@ 1003be08     LIBCMT:strftime.obj
 0002:00002e10       ??_C@_08GNJGEPFN@February?$AA@ 1003be10     LIBCMT:strftime.obj
 0002:00002e1c       ??_C@_07CGJPFGJA@January?$AA@ 1003be1c     LIBCMT:strftime.obj
 0002:00002e24       ??_C@_03MKABNOCG@Dec?$AA@  1003be24     LIBCMT:strftime.obj
 0002:00002e28       ??_C@_03JPJOFNIA@Nov?$AA@  1003be28     LIBCMT:strftime.obj
 0002:00002e2c       ??_C@_03BMAOKBAD@Oct?$AA@  1003be2c     LIBCMT:strftime.obj
 0002:00002e30       ??_C@_03GGCAPAJC@Sep?$AA@  1003be30     LIBCMT:strftime.obj
 0002:00002e34       ??_C@_03IFJFEIGA@Aug?$AA@  1003be34     LIBCMT:strftime.obj
 0002:00002e38       ??_C@_03LBGABGKK@Jul?$AA@  1003be38     LIBCMT:strftime.obj
 0002:00002e3c       ??_C@_03IDFGHECI@Jun?$AA@  1003be3c     LIBCMT:strftime.obj
 0002:00002e40       ??_C@_03CNMDKL@May?$AA@    1003be40     LIBCMT:strftime.obj
 0002:00002e44       ??_C@_03LEOLGMJP@Apr?$AA@  1003be44     LIBCMT:strftime.obj
 0002:00002e48       ??_C@_03ODNJBKGA@Mar?$AA@  1003be48     LIBCMT:strftime.obj
 0002:00002e4c       ??_C@_03HJBDCHOM@Feb?$AA@  1003be4c     LIBCMT:strftime.obj
 0002:00002e50       ??_C@_03JIHJHPIE@Jan?$AA@  1003be50     LIBCMT:strftime.obj
 0002:00002e54       ??_C@_08INBOOONO@Saturday?$AA@ 1003be54     LIBCMT:strftime.obj
 0002:00002e60       ??_C@_06JECMNKMI@Friday?$AA@ 1003be60     LIBCMT:strftime.obj
 0002:00002e68       ??_C@_08HACCIKIA@Thursday?$AA@ 1003be68     LIBCMT:strftime.obj
 0002:00002e74       ??_C@_09DLIGFAKA@Wednesday?$AA@ 1003be74     LIBCMT:strftime.obj
 0002:00002e80       ??_C@_07BAAGCFCM@Tuesday?$AA@ 1003be80     LIBCMT:strftime.obj
 0002:00002e88       ??_C@_06JLEDEDGH@Monday?$AA@ 1003be88     LIBCMT:strftime.obj
 0002:00002e90       ??_C@_06OOPIFAJ@Sunday?$AA@ 1003be90     LIBCMT:strftime.obj
 0002:00002e98       ??_C@_03FEFJNEK@Sat?$AA@   1003be98     LIBCMT:strftime.obj
 0002:00002e9c       ??_C@_03IDIOELNC@Fri?$AA@  1003be9c     LIBCMT:strftime.obj
 0002:00002ea0       ??_C@_03IOFIKPDN@Thu?$AA@  1003bea0     LIBCMT:strftime.obj
 0002:00002ea4       ??_C@_03MHOMLAJA@Wed?$AA@  1003bea4     LIBCMT:strftime.obj
 0002:00002ea8       ??_C@_03NAGEINEP@Tue?$AA@  1003bea8     LIBCMT:strftime.obj
 0002:00002eac       ??_C@_03PDAGKDH@Mon?$AA@   1003beac     LIBCMT:strftime.obj
 0002:00002eb0       ??_C@_03KOEHGMDN@Sun?$AA@  1003beb0     LIBCMT:strftime.obj
 0002:00002eb4       ??_C@_0BI@DFKBFLJE@GetProcessWindowStation?$AA@ 1003beb4     LIBCMT:crtmbox.obj
 0002:00002ecc       ??_C@_0BK@CIDNPOGP@GetUserObjectInformationA?$AA@ 1003becc     LIBCMT:crtmbox.obj
 0002:00002ee8       ??_C@_0BD@HHGDFDBJ@GetLastActivePopup?$AA@ 1003bee8     LIBCMT:crtmbox.obj
 0002:00002efc       ??_C@_0BA@HNOPNCHB@GetActiveWindow?$AA@ 1003befc     LIBCMT:crtmbox.obj
 0002:00002f0c       ??_C@_0M@CHKKJDAI@MessageBoxA?$AA@ 1003bf0c     LIBCMT:crtmbox.obj
 0002:00002f18       ??_C@_0L@NDEGIDAG@USER32?4DLL?$AA@ 1003bf18     LIBCMT:crtmbox.obj
 0002:00002f28       ___lookuptable_s           1003bf28     LIBCMT:outputs.obj
 0002:00002f84       ___dnames                  1003bf84     LIBCMT:timeset.obj
 0002:00002f9c       ___mnames                  1003bf9c     LIBCMT:timeset.obj
 0002:00002fc4       ??_C@_06IMKFLFPG@1?$CDQNAN?$AA@ 1003bfc4     LIBCMT:_x10fout_.obj
 0002:00002fcc       ??_C@_05DNEBIAHO@1?$CDINF?$AA@ 1003bfcc     LIBCMT:_x10fout_.obj
 0002:00002fd4       ??_C@_05PHHOCPM@1?$CDIND?$AA@ 1003bfd4     LIBCMT:_x10fout_.obj
 0002:00002fdc       ??_C@_06PGGFOGJG@1?$CDSNAN?$AA@ 1003bfdc     LIBCMT:_x10fout_.obj
 0002:00002fe4       ??_C@_07GPDNMNG@CONOUT$?$AA@ 1003bfe4     LIBCMT:initcon.obj
 0002:00002ff0       __load_config_used         1003bff0     LIBCMT:loadcfg.obj
 0002:00003038       ??_R4Window@@6B@           1003c038     CallTip.obj
 0002:0000304c       ??_R3Window@@8             1003c04c     CallTip.obj
 0002:0000305c       ??_R2Window@@8             1003c05c     CallTip.obj
 0002:00003064       ??_R1A@?0A@EA@Window@@8    1003c064     CallTip.obj
 0002:00003080       ??_R4ContractionState@@6B@ 1003c080     ContractionState.obj
 0002:00003094       ??_R3ContractionState@@8   1003c094     ContractionState.obj
 0002:000030a4       ??_R2ContractionState@@8   1003c0a4     ContractionState.obj
 0002:000030ac       ??_R1A@?0A@EA@ContractionState@@8 1003c0ac     ContractionState.obj
 0002:000030c8       ??_R4PerLine@@6B@          1003c0c8     Document.obj
 0002:000030dc       ??_R3PerLine@@8            1003c0dc     Document.obj
 0002:000030ec       ??_R2PerLine@@8            1003c0ec     Document.obj
 0002:000030f4       ??_R1A@?0A@EA@PerLine@@8   1003c0f4     Document.obj
 0002:00003110       ??_R4RegexSearchBase@@6B@  1003c110     Document.obj
 0002:00003124       ??_R3RegexSearchBase@@8    1003c124     Document.obj
 0002:00003134       ??_R2RegexSearchBase@@8    1003c134     Document.obj
 0002:0000313c       ??_R1A@?0A@EA@RegexSearchBase@@8 1003c13c     Document.obj
 0002:00003158       ??_R4CharacterIndexer@@6B@ 1003c158     Document.obj
 0002:0000316c       ??_R3CharacterIndexer@@8   1003c16c     Document.obj
 0002:0000317c       ??_R2CharacterIndexer@@8   1003c17c     Document.obj
 0002:00003184       ??_R1A@?0A@EA@CharacterIndexer@@8 1003c184     Document.obj
 0002:000031a0       ??_R4Document@@6B@         1003c1a0     Document.obj
 0002:000031b4       ??_R3Document@@8           1003c1b4     Document.obj
 0002:000031c4       ??_R2Document@@8           1003c1c4     Document.obj
 0002:000031d0       ??_R1A@?0A@EA@Document@@8  1003c1d0     Document.obj
 0002:000031ec       ??_R1A@?0A@EN@PerLine@@8   1003c1ec     Document.obj
 0002:00003208       ??_R4BuiltinRegex@@6B@     1003c208     Document.obj
 0002:0000321c       ??_R3BuiltinRegex@@8       1003c21c     Document.obj
 0002:0000322c       ??_R2BuiltinRegex@@8       1003c22c     Document.obj
 0002:00003238       ??_R1A@?0A@EA@BuiltinRegex@@8 1003c238     Document.obj
 0002:00003254       ??_R4DocumentIndexer@@6B@  1003c254     Document.obj
 0002:00003268       ??_R3DocumentIndexer@@8    1003c268     Document.obj
 0002:00003278       ??_R2DocumentIndexer@@8    1003c278     Document.obj
 0002:00003284       ??_R1A@?0A@EA@DocumentIndexer@@8 1003c284     Document.obj
 0002:000032a0       ??_R4LineMarkers@@6B@      1003c2a0     Document.obj
 0002:000032b4       ??_R3LineMarkers@@8        1003c2b4     Document.obj
 0002:000032c4       ??_R2LineMarkers@@8        1003c2c4     Document.obj
 0002:000032d0       ??_R1A@?0A@EA@LineMarkers@@8 1003c2d0     Document.obj
 0002:000032ec       ??_R4LineState@@6B@        1003c2ec     Document.obj
 0002:00003300       ??_R3LineState@@8          1003c300     Document.obj
 0002:00003310       ??_R2LineState@@8          1003c310     Document.obj
 0002:0000331c       ??_R1A@?0A@EA@LineState@@8 1003c31c     Document.obj
 0002:00003338       ??_R4LineAnnotation@@6B@   1003c338     Document.obj
 0002:0000334c       ??_R3LineAnnotation@@8     1003c34c     Document.obj
 0002:0000335c       ??_R2LineAnnotation@@8     1003c35c     Document.obj
 0002:00003368       ??_R1A@?0A@EA@LineAnnotation@@8 1003c368     Document.obj
 0002:00003384       ??_R4LineLevels@@6B@       1003c384     Document.obj
 0002:00003398       ??_R3LineLevels@@8         1003c398     Document.obj
 0002:000033a8       ??_R2LineLevels@@8         1003c3a8     Document.obj
 0002:000033b4       ??_R1A@?0A@EA@LineLevels@@8 1003c3b4     Document.obj
 0002:000033d0       ??_R4Accessor@@6B@         1003c3d0     DocumentAccessor.obj
 0002:000033e4       ??_R3Accessor@@8           1003c3e4     DocumentAccessor.obj
 0002:000033f4       ??_R2Accessor@@8           1003c3f4     DocumentAccessor.obj
 0002:000033fc       ??_R1A@?0A@EA@Accessor@@8  1003c3fc     DocumentAccessor.obj
 0002:00003418       ??_R4DocWatcher@@6B@       1003c418     Editor.obj
 0002:0000342c       ??_R3DocWatcher@@8         1003c42c     Editor.obj
 0002:0000343c       ??_R2DocWatcher@@8         1003c43c     Editor.obj
 0002:00003444       ??_R1A@?0A@EA@DocWatcher@@8 1003c444     Editor.obj
 0002:00003460       ??_R4Editor@@6B@           1003c460     Editor.obj
 0002:00003474       ??_R3Editor@@8             1003c474     Editor.obj
 0002:00003484       ??_R2Editor@@8             1003c484     Editor.obj
 0002:00003490       ??_R1A@?0A@EA@Editor@@8    1003c490     Editor.obj
 0002:000034ac       ??_R4LexerModule@@6B@      1003c4ac     ExternalLexer.obj
 0002:000034c0       ??_R3LexerModule@@8        1003c4c0     ExternalLexer.obj
 0002:000034d0       ??_R2LexerModule@@8        1003c4d0     ExternalLexer.obj
 0002:000034d8       ??_R1A@?0A@EA@LexerModule@@8 1003c4d8     ExternalLexer.obj
 0002:000034f4       ??_R4ExternalLexerModule@@6B@ 1003c4f4     ExternalLexer.obj
 0002:00003508       ??_R3ExternalLexerModule@@8 1003c508     ExternalLexer.obj
 0002:00003518       ??_R2ExternalLexerModule@@8 1003c518     ExternalLexer.obj
 0002:00003524       ??_R1A@?0A@EA@ExternalLexerModule@@8 1003c524     ExternalLexer.obj
 0002:00003540       ??_R1A@?0A@EN@LexerModule@@8 1003c540     ExternalLexer.obj
 0002:0000355c       ??_R4Surface@@6B@          1003c55c     PlatWin.obj
 0002:00003570       ??_R3Surface@@8            1003c570     PlatWin.obj
 0002:00003580       ??_R2Surface@@8            1003c580     PlatWin.obj
 0002:00003588       ??_R1A@?0A@EA@Surface@@8   1003c588     PlatWin.obj
 0002:000035a4       ??_R4DynamicLibrary@@6B@   1003c5a4     PlatWin.obj
 0002:000035b8       ??_R3DynamicLibrary@@8     1003c5b8     PlatWin.obj
 0002:000035c8       ??_R2DynamicLibrary@@8     1003c5c8     PlatWin.obj
 0002:000035d0       ??_R1A@?0A@EA@DynamicLibrary@@8 1003c5d0     PlatWin.obj
 0002:000035ec       ??_R4Font@@6B@             1003c5ec     PlatWin.obj
 0002:00003600       ??_R3Font@@8               1003c600     PlatWin.obj
 0002:00003610       ??_R2Font@@8               1003c610     PlatWin.obj
 0002:00003618       ??_R1A@?0A@EA@Font@@8      1003c618     PlatWin.obj
 0002:00003634       ??_R4SurfaceImpl@@6B@      1003c634     PlatWin.obj
 0002:00003648       ??_R3SurfaceImpl@@8        1003c648     PlatWin.obj
 0002:00003658       ??_R2SurfaceImpl@@8        1003c658     PlatWin.obj
 0002:00003664       ??_R1A@?0A@EA@SurfaceImpl@@8 1003c664     PlatWin.obj
 0002:00003680       ??_R4ListBox@@6B@          1003c680     PlatWin.obj
 0002:00003694       ??_R3ListBox@@8            1003c694     PlatWin.obj
 0002:000036a4       ??_R2ListBox@@8            1003c6a4     PlatWin.obj
 0002:000036b0       ??_R1A@?0A@EA@ListBox@@8   1003c6b0     PlatWin.obj
 0002:000036cc       ??_R4FontCached@@6B@       1003c6cc     PlatWin.obj
 0002:000036e0       ??_R3FontCached@@8         1003c6e0     PlatWin.obj
 0002:000036f0       ??_R2FontCached@@8         1003c6f0     PlatWin.obj
 0002:000036fc       ??_R1A@?0A@EA@FontCached@@8 1003c6fc     PlatWin.obj
 0002:00003718       ??_R1A@?0A@EN@Font@@8      1003c718     PlatWin.obj
 0002:00003734       ??_R4ListBoxX@@6B@         1003c734     PlatWin.obj
 0002:00003748       ??_R3ListBoxX@@8           1003c748     PlatWin.obj
 0002:00003758       ??_R2ListBoxX@@8           1003c758     PlatWin.obj
 0002:00003768       ??_R1A@?0A@EA@ListBoxX@@8  1003c768     PlatWin.obj
 0002:00003784       ??_R4DynamicLibraryImpl@@6B@ 1003c784     PlatWin.obj
 0002:00003798       ??_R3DynamicLibraryImpl@@8 1003c798     PlatWin.obj
 0002:000037a8       ??_R2DynamicLibraryImpl@@8 1003c7a8     PlatWin.obj
 0002:000037b4       ??_R1A@?0A@EA@DynamicLibraryImpl@@8 1003c7b4     PlatWin.obj
 0002:000037d0       ??_R4LineLayout@@6B@       1003c7d0     PositionCache.obj
 0002:000037e4       ??_R3LineLayout@@8         1003c7e4     PositionCache.obj
 0002:000037f4       ??_R2LineLayout@@8         1003c7f4     PositionCache.obj
 0002:000037fc       ??_R1A@?0A@EA@LineLayout@@8 1003c7fc     PositionCache.obj
 0002:00003818       ??_R4LineLayoutCache@@6B@  1003c818     PositionCache.obj
 0002:0000382c       ??_R3LineLayoutCache@@8    1003c82c     PositionCache.obj
 0002:0000383c       ??_R2LineLayoutCache@@8    1003c83c     PositionCache.obj
 0002:00003844       ??_R1A@?0A@EA@LineLayoutCache@@8 1003c844     PositionCache.obj
 0002:00003860       ??_R4DocumentAccessor@@6B@ 1003c860     ScintillaBase.obj
 0002:00003874       ??_R3DocumentAccessor@@8   1003c874     ScintillaBase.obj
 0002:00003884       ??_R2DocumentAccessor@@8   1003c884     ScintillaBase.obj
 0002:00003890       ??_R1A@?0A@EA@DocumentAccessor@@8 1003c890     ScintillaBase.obj
 0002:000038ac       ??_R4ScintillaBase@@6B@    1003c8ac     ScintillaBase.obj
 0002:000038c0       ??_R3ScintillaBase@@8      1003c8c0     ScintillaBase.obj
 0002:000038d0       ??_R2ScintillaBase@@8      1003c8d0     ScintillaBase.obj
 0002:000038e0       ??_R1A@?0A@EA@ScintillaBase@@8 1003c8e0     ScintillaBase.obj
 0002:000038fc       ??_R4ScintillaWin@@6B@     1003c8fc     ScintillaWin.obj
 0002:00003910       ??_R3ScintillaWin@@8       1003c910     ScintillaWin.obj
 0002:00003920       ??_R2ScintillaWin@@8       1003c920     ScintillaWin.obj
 0002:00003934       ??_R1A@?0A@EA@ScintillaWin@@8 1003c934     ScintillaWin.obj
 0002:00003950       ??_R4type_info@@6B@        1003c950     LIBCMT:typinfo.obj
 0002:00003964       ??_R3type_info@@8          1003c964     LIBCMT:typinfo.obj
 0002:00003974       ??_R2type_info@@8          1003c974     LIBCMT:typinfo.obj
 0002:0000397c       ??_R1A@?0A@EA@type_info@@8 1003c97c     LIBCMT:typinfo.obj
 0002:00003998       ??_R4bad_alloc@std@@6B@    1003c998     LIBCMT:new.obj
 0002:000039ac       ??_R3bad_alloc@std@@8      1003c9ac     LIBCMT:new.obj
 0002:000039bc       ??_R2bad_alloc@std@@8      1003c9bc     LIBCMT:new.obj
 0002:000039c8       ??_R1A@?0A@EA@bad_alloc@std@@8 1003c9c8     LIBCMT:new.obj
 0002:000039e4       ??_R1A@?0A@EA@exception@std@@8 1003c9e4     LIBCMT:new.obj
 0002:00003a00       ??_R3exception@std@@8      1003ca00     LIBCMT:new.obj
 0002:00003a10       ??_R2exception@std@@8      1003ca10     LIBCMT:new.obj
 0002:00003a18       ??_R4bad_exception@std@@6B@ 1003ca18     LIBCMT:frame.obj
 0002:00003a2c       ??_R3bad_exception@std@@8  1003ca2c     LIBCMT:frame.obj
 0002:00003a3c       ??_R2bad_exception@std@@8  1003ca3c     LIBCMT:frame.obj
 0002:00003a48       ??_R1A@?0A@EA@bad_exception@std@@8 1003ca48     LIBCMT:frame.obj
 0002:00003a64       ??_R4exception@std@@6B@    1003ca64     LIBCMT:stdexcpt.obj
 0002:00003a80       ___safe_se_handler_table   1003ca80     <linker-defined>
 0002:00003b84       ___rtc_iaa                 1003cb84     LIBCMT:_initsect_.obj
 0002:00003b88       ___rtc_izz                 1003cb88     LIBCMT:_initsect_.obj
 0002:00003b8c       ___rtc_taa                 1003cb8c     LIBCMT:_initsect_.obj
 0002:00003b90       ___rtc_tzz                 1003cb90     LIBCMT:_initsect_.obj
 0002:00004784       __TI2?AVbad_alloc@std@@    1003d784     LIBCMT:new.obj
 0002:00004794       __CTA2?AVbad_alloc@std@@   1003d794     LIBCMT:new.obj
 0002:000047a0       __CT??_R0?AVbad_alloc@std@@@8??0bad_alloc@std@@QAE@ABV01@@Z12 1003d7a0     LIBCMT:new.obj
 0002:000047bc       __CT??_R0?AVexception@std@@@8??0exception@std@@QAE@ABV01@@Z12 1003d7bc     LIBCMT:new.obj
 0002:000049bc       __TI2?AVbad_exception@std@@ 1003d9bc     LIBCMT:frame.obj
 0002:000049cc       __CTA2?AVbad_exception@std@@ 1003d9cc     LIBCMT:frame.obj
 0002:000049d8       __CT??_R0?AVbad_exception@std@@@8??0bad_exception@std@@QAE@ABV01@@Z12 1003d9d8     LIBCMT:frame.obj
 0002:00004d6c       __IMPORT_DESCRIPTOR_IMM32  1003dd6c     imm32:IMM32.dll
 0002:00004d80       __IMPORT_DESCRIPTOR_KERNEL32 1003dd80     kernel32:KERNEL32.dll
 0002:00004d94       __IMPORT_DESCRIPTOR_USER32 1003dd94     user32:USER32.dll
 0002:00004da8       __IMPORT_DESCRIPTOR_GDI32  1003dda8     gdi32:GDI32.dll
 0002:00004dbc       __IMPORT_DESCRIPTOR_ole32  1003ddbc     ole32:ole32.dll
 0002:00004dd0       __NULL_IMPORT_DESCRIPTOR   1003ddd0     imm32:IMM32.dll
 0003:00000000       ??_R0?AVWindow@@@8         1003f000     CallTip.obj
 0003:00000018       ??_R0?AVContractionState@@@8 1003f018     ContractionState.obj
 0003:00000038       ??_R0?AVPerLine@@@8        1003f038     Document.obj
 0003:00000050       ??_R0?AVRegexSearchBase@@@8 1003f050     Document.obj
 0003:00000070       ??_R0?AVCharacterIndexer@@@8 1003f070     Document.obj
 0003:00000090       ??_R0?AVDocument@@@8       1003f090     Document.obj
 0003:000000a8       ??_R0?AVBuiltinRegex@@@8   1003f0a8     Document.obj
 0003:000000c4       ??_R0?AVDocumentIndexer@@@8 1003f0c4     Document.obj
 0003:000000e4       ??_R0?AVLineMarkers@@@8    1003f0e4     Document.obj
 0003:00000100       ??_R0?AVLineState@@@8      1003f100     Document.obj
 0003:00000118       ??_R0?AVLineAnnotation@@@8 1003f118     Document.obj
 0003:00000138       ??_R0?AVLineLevels@@@8     1003f138     Document.obj
 0003:00000154       ??_R0?AVAccessor@@@8       1003f154     DocumentAccessor.obj
 0003:0000016c       ??_R0?AVDocWatcher@@@8     1003f16c     Editor.obj
 0003:00000188       ??_R0?AVEditor@@@8         1003f188     Editor.obj
 0003:000001a0       ??_R0?AVLexerModule@@@8    1003f1a0     ExternalLexer.obj
 0003:000001bc       ??_R0?AVExternalLexerModule@@@8 1003f1bc     ExternalLexer.obj
 0003:000001e0       ?nextLanguage@LexerModule@@1HA 1003f1e0     KeyWords.obj
 0003:000001e8       ?TextInset@ListBoxX@@0VPoint@@B 1003f1e8     PlatWin.obj
 0003:000001f0       ?ImageInset@ListBoxX@@0VPoint@@B 1003f1f0     PlatWin.obj
 0003:000001f8       ??_R0?AVSurface@@@8        1003f1f8     PlatWin.obj
 0003:00000210       ??_R0?AVDynamicLibrary@@@8 1003f210     PlatWin.obj
 0003:00000230       ??_R0?AVFont@@@8           1003f230     PlatWin.obj
 0003:00000244       ??_R0?AVSurfaceImpl@@@8    1003f244     PlatWin.obj
 0003:00000260       ??_R0?AVListBox@@@8        1003f260     PlatWin.obj
 0003:00000278       ??_R0?AVFontCached@@@8     1003f278     PlatWin.obj
 0003:00000294       ??_R0?AVListBoxX@@@8       1003f294     PlatWin.obj
 0003:000002ac       ??_R0?AVDynamicLibraryImpl@@@8 1003f2ac     PlatWin.obj
 0003:000002d0       ??_R0?AVLineLayout@@@8     1003f2d0     PositionCache.obj
 0003:000002ec       ??_R0?AVLineLayoutCache@@@8 1003f2ec     PositionCache.obj
 0003:0000030c       ??_R0?AVDocumentAccessor@@@8 1003f30c     ScintillaBase.obj
 0003:0000032c       ??_R0?AVScintillaBase@@@8  1003f32c     ScintillaBase.obj
 0003:000003c4       ??_R0?AVScintillaWin@@@8   1003f3c4     ScintillaWin.obj
 0003:000003e0       ___security_cookie         1003f3e0     LIBCMT:gs_cookie.obj
 0003:000003e4       ___security_cookie_complement 1003f3e4     LIBCMT:gs_cookie.obj
 0003:000003ec       ??_R0?AVtype_info@@@8      1003f3ec     LIBCMT:typinfo.obj
 0003:00000414       ??_R0?AVbad_alloc@std@@@8  1003f414     LIBCMT:new.obj
 0003:00000430       ??_R0?AVexception@std@@@8  1003f430     LIBCMT:new.obj
 0003:00000450       __fltused                  1003f450     LIBCMT:_fpinit_.obj
 0003:00000454       __ldused                   1003f454     LIBCMT:_fpinit_.obj
 0003:00000458       ___abort_behavior          1003f458     LIBCMT:abort.obj
 0003:00000468       ??_R0?AVbad_exception@std@@@8 1003f468     LIBCMT:frame.obj
 0003:00000488       ___flsindex                1003f488     LIBCMT:tidtable.obj
 0003:0000048c       ___getvalueindex           1003f48c     LIBCMT:tidtable.obj
 0003:00000498       ___initialmbcinfo          1003f498     LIBCMT:mbctype.obj
 0003:000006b8       __mbctype                  1003f6b8     LIBCMT:mbctype.obj
 0003:000007c0       __mbcasemap                1003f7c0     LIBCMT:mbctype.obj
 0003:000008c0       ___ptmbcinfo               1003f8c0     LIBCMT:mbctype.obj
 0003:000009bc       ___globallocalestatus      1003f9bc     LIBCMT:glstatus.obj
 0003:000009c0       ___clocalestr              1003f9c0     LIBCMT:nlsdata2.obj
 0003:000009c8       ___initiallocinfo          1003f9c8     LIBCMT:nlsdata2.obj
 0003:00000aa0       ___ptlocinfo               1003faa0     LIBCMT:nlsdata2.obj
 0003:00000aa4       ___lc_clike                1003faa4     LIBCMT:nlsdata2.obj
 0003:00000aa8       ___initiallocalestructinfo 1003faa8     LIBCMT:nlsdata2.obj
 0003:00000b68       ___nullstring              1003fb68     LIBCMT:output.obj
 0003:00000b6c       ___wnullstring             1003fb6c     LIBCMT:output.obj
 0003:00000ce0       __aexit_rtn                1003fce0     LIBCMT:crt0dat.obj
 0003:00000cf0       __cfltcvt_tab              1003fcf0     LIBCMT:cmiscdat.obj
 0003:00000d18       ___badioinfo               1003fd18     LIBCMT:ioinit.obj
 0003:00000d58       __amblksiz                 1003fd58     LIBCMT:heapinit.obj
 0003:00000d5c       __First_FPE_Indx           1003fd5c     LIBCMT:winxfltr.obj
 0003:00000d60       __Num_FPE                  1003fd60     LIBCMT:winxfltr.obj
 0003:00000d64       __XcptActTabSize           1003fd64     LIBCMT:winxfltr.obj
 0003:00000d68       __XcptActTabCount          1003fd68     LIBCMT:winxfltr.obj
 0003:00000e90       __NLG_Destination          1003fe90     LIBCMT:exsup.obj
 0003:00000ea0       __pctype                   1003fea0     LIBCMT:ctype.obj
 0003:00000ea4       __pwctype                  1003fea4     LIBCMT:ctype.obj
 0003:00000ea8       ___lc_time_c               1003fea8     LIBCMT:strftime.obj
 0003:00000f60       ___lc_time_curr            1003ff60     LIBCMT:strftime.obj
 0003:00000f64       ___lconv_static_decimal    1003ff64     LIBCMT:lconv.obj
 0003:00000f68       ___lconv_c                 1003ff68     LIBCMT:lconv.obj
 0003:00000f98       ___lconv                   1003ff98     LIBCMT:lconv.obj
 0003:00000f9c       ___mb_cur_max              1003ff9c     LIBCMT:nlsdata1.obj
 0003:00000fa0       ___decimal_point           1003ffa0     LIBCMT:nlsdata1.obj
 0003:00000fa4       ___decimal_point_length    1003ffa4     LIBCMT:nlsdata1.obj
 0003:00000fb0       __iob                      1003ffb0     LIBCMT:_file.obj
 0003:00001230       __timezone                 10040230     LIBCMT:timeset.obj
 0003:00001234       __daylight                 10040234     LIBCMT:timeset.obj
 0003:00001238       __dstbias                  10040238     LIBCMT:timeset.obj
 0003:000012c0       __tzname                   100402c0     LIBCMT:timeset.obj
 0003:00001314       __lpdays                   10040314     LIBCMT:days.obj
 0003:00001348       __days                     10040348     LIBCMT:days.obj
 0003:00001380       __coninpfh                 10040380     LIBCMT:initcon.obj
 0003:00001384       __confh                    10040384     LIBCMT:initcon.obj
 0003:00001388       __pow10pos                 10040388     LIBCMT:_constpow_.obj
 0003:000014e8       __pow10neg                 100404e8     LIBCMT:_constpow_.obj
 0003:00001660       ?theInstance@LexerManager@@0PAV1@A 10040660     ExternalLexer.obj
 0003:00001664       ?minder@@3VLMMinder@@A     10040664     ExternalLexer.obj
 0003:00001668       ?base@LexerModule@@1PBV1@B 10040668     KeyWords.obj
 0003:00001670       ?lmASP@@3VLexerModule@@A   10040670     LexHTML.obj
 0003:00001690       ?lmHTML@@3VLexerModule@@A  10040690     LexHTML.obj
 0003:000016b0       ?lmPHPSCRIPT@@3VLexerModule@@A 100406b0     LexHTML.obj
 0003:000016d0       ?lmXML@@3VLexerModule@@A   100406d0     LexHTML.obj
 0003:000016f0       ?lmPHP@@3VLexerModule@@A   100406f0     LexHTML.obj
 0003:00001710       ?lmMSSQL@@3VLexerModule@@A 10040710     LexMSSQL.obj
 0003:00001730       ?lmMySQL@@3VLexerModule@@A 10040730     LexMySQL.obj
 0003:00001750       ?lmSQL@@3VLexerModule@@A   10040750     LexSQL.obj
 0003:000017a0       ?first@FontCached@@0PAV1@A 100407a0     PlatWin.obj
 0003:000017a4       ?ItemInset@ListBoxX@@0VPoint@@B 100407a4     PlatWin.obj
 0003:000017ac       ?hInstance@ScintillaWin@@0PAUHINSTANCE__@@A 100407ac     ScintillaWin.obj
 0003:000017c8       ___fastflag                100407c8     LIBCMT:_fpinit_.obj
 0003:000017cc       __adjust_fdiv              100407cc     LIBCMT:_fpinit_.obj
 0003:000017d4       __aenvptr                  100407d4     LIBCMT:dllcrt0.obj
 0003:000017d8       __wenvptr                  100407d8     LIBCMT:dllcrt0.obj
 0003:000017dc       ___error_mode              100407dc     LIBCMT:dllcrt0.obj
 0003:000017e0       ___app_type                100407e0     LIBCMT:dllcrt0.obj
 0003:00001b14       _gpFlsAlloc                10040b14     LIBCMT:tidtable.obj
 0003:00001b18       _gpFlsGetValue             10040b18     LIBCMT:tidtable.obj
 0003:00001b1c       _gpFlsSetValue             10040b1c     LIBCMT:tidtable.obj
 0003:00001b20       _gpFlsFree                 10040b20     LIBCMT:tidtable.obj
 0003:00001b24       ?__pInconsistency@@3P6AXXZA 10040b24     LIBCMT:hooks.obj
 0003:00001b28       ?_pnhHeap@@3P6AHI@ZA       10040b28     LIBCMT:handler.obj
 0003:00001b30       ___mbulinfo                10040b30     LIBCMT:mbctype.obj
 0003:00001b3c       ___mbcodepage              10040b3c     LIBCMT:mbctype.obj
 0003:00001b40       ___ismbcodepage            10040b40     LIBCMT:mbctype.obj
 0003:00001b44       ___mblcid                  10040b44     LIBCMT:mbctype.obj
 0003:00001b48       ___locale_changed          10040b48     LIBCMT:setlocal.obj
 0003:00001b4c       ___lc_handle               10040b4c     LIBCMT:nlsdata2.obj
 0003:00001b64       ___lc_codepage             10040b64     LIBCMT:nlsdata2.obj
 0003:00001b68       ___lc_collate_cp           10040b68     LIBCMT:nlsdata2.obj
 0003:00001e8c       ___pPurecall               10040e8c     LIBCMT:inithelp.obj
 0003:00001e90       ___pInvalidArgHandler      10040e90     LIBCMT:invarg.obj
 0003:00001e98       __maxwait                  10040e98     LIBCMT:crtheap.obj
 0003:00001e9c       __umaskval                 10040e9c     LIBCMT:crt0dat.obj
 0003:00001ea0       ___argc                    10040ea0     LIBCMT:crt0dat.obj
 0003:00001ea4       ___argv                    10040ea4     LIBCMT:crt0dat.obj
 0003:00001ea8       ___wargv                   10040ea8     LIBCMT:crt0dat.obj
 0003:00001eac       __environ                  10040eac     LIBCMT:crt0dat.obj
 0003:00001eb0       ___initenv                 10040eb0     LIBCMT:crt0dat.obj
 0003:00001eb4       __wenviron                 10040eb4     LIBCMT:crt0dat.obj
 0003:00001eb8       ___winitenv                10040eb8     LIBCMT:crt0dat.obj
 0003:00001ebc       __pgmptr                   10040ebc     LIBCMT:crt0dat.obj
 0003:00001ec0       __wpgmptr                  10040ec0     LIBCMT:crt0dat.obj
 0003:00001ec4       __exitflag                 10040ec4     LIBCMT:crt0dat.obj
 0003:00001ec8       __C_Termination_Done       10040ec8     LIBCMT:crt0dat.obj
 0003:00001ecc       __C_Exit_Done              10040ecc     LIBCMT:crt0dat.obj
 0003:00001ff4       __crtheap                  10040ff4     LIBCMT:heapinit.obj
 0003:0000215c       ?pArgList@UnDecorator@@0PAVReplicator@@A 1004115c     LIBCMT:undname.obj
 0003:00002160       ?pZNameList@UnDecorator@@0PAVReplicator@@A 10041160     LIBCMT:undname.obj
 0003:00002164       ?pTemplateArgList@UnDecorator@@0PAVReplicator@@A 10041164     LIBCMT:undname.obj
 0003:00002168       ?gName@UnDecorator@@0PBDB  10041168     LIBCMT:undname.obj
 0003:0000216c       ?name@UnDecorator@@0PBDB   1004116c     LIBCMT:undname.obj
 0003:00002170       ?outputString@UnDecorator@@0PADA 10041170     LIBCMT:undname.obj
 0003:00002174       ?maxStringLength@UnDecorator@@0HA 10041174     LIBCMT:undname.obj
 0003:00002178       ?disableFlags@UnDecorator@@0KA 10041178     LIBCMT:undname.obj
 0003:0000217c       ?m_pGetParameter@UnDecorator@@0P6APADJ@ZA 1004117c     LIBCMT:undname.obj
 0003:00002180       ?fExplicitTemplateParams@UnDecorator@@0_NA 10041180     LIBCMT:undname.obj
 0003:00002181       ?fGetTemplateArgumentList@UnDecorator@@0_NA 10041181     LIBCMT:undname.obj
 0003:00002184       ___sbh_pHeaderDefer        10041184     LIBCMT:sbheap.obj
 0003:00002188       __newmode                  10041188     LIBCMT:_newmode.obj
 0003:00002190       ___lconv_static_null       10041190     LIBCMT:lconv.obj
 0003:000021a8       __cflush                   100411a8     LIBCMT:_file.obj
 0003:000021b8       __outputformat             100411b8     LIBCMT:outputformat.obj
 0003:00002278       __stdbuf                   10041278     LIBCMT:_sftbuf.obj
 0003:00002280       ___piob                    10041280     <common>
 0003:000022a0       __bufin                    100412a0     <common>
 0003:000032a0       __nstream                  100422a0     <common>
 0003:000032a4       ___sbh_cntHeaderList       100422a4     <common>
 0003:000032a8       ___sbh_pHeaderList         100422a8     <common>
 0003:000032ac       ___sbh_threshold           100422ac     <common>
 0003:000032b0       ___sbh_pHeaderScan         100422b0     <common>
 0003:000032b4       ___sbh_sizeHeaderList      100422b4     <common>
 0003:000032b8       ___sbh_indGroupDefer       100422b8     <common>
 0003:000032bc       __debugger_hook_dummy      100422bc     <common>
 0003:000032c0       ___active_heap             100422c0     <common>
 0003:000032c4       __nhandle                  100422c4     <common>
 0003:000032e0       ___pioinfo                 100422e0     <common>
 0003:000033e0       ___env_initialized         100423e0     <common>
 0003:000033e4       ___onexitend               100423e4     <common>
 0003:000033e8       ___onexitbegin             100423e8     <common>
 0003:000033ec       ___mbctype_initialized     100423ec     <common>
 0003:000033f0       ___dyn_tls_init_callback   100423f0     <common>
 0003:000033f4       ___sse2_available          100423f4     <common>
 0003:000033f8       __acmdln                   100423f8     <common>

 entry point at        0001:0002b0b8

 Static symbols

 0001:000004e8       ?IsArrowCharacter@@YA_ND@Z 100014e8 f   CallTip.obj
 0001:000027c0       ?IsPunctuation@@YA_ND@Z    100037c0 f   Document.obj
 0001:000027de       ?IsADigit@@YA_ND@Z         100037de f   Document.obj
 0001:000027fc       ?IsLowerCase@@YA_ND@Z      100037fc f   Document.obj
 0001:0000281a       ?IsUpperCase@@YA_ND@Z      1000381a f   Document.obj
 0001:00002999       ?IsSubordinate@@YA_NHH@Z   10003999 f   Document.obj
 0001:00002b55       ?BytesFromLead@@YAHH@Z     10003b55 f   Document.obj
 0001:00002da8       ?isindentchar@@YA_ND@Z     10003da8 f   Document.obj
 0001:00002dbd       ?NextTab@@YAHHH@Z          10003dbd f   Document.obj
 0001:00002dc9       ?CreateIndentation@@YAXPADHHH_N@Z 10003dc9 f   Document.obj
 0001:00003acf       ?BraceOpposite@@YADD@Z     10004acf f   Document.obj
 0001:00005f07       ?IsEOLChar@@YA_ND@Z        10006f07 f   Editor.obj
 0001:00005fd4       ?CanDeferToLastStep@@YA_NABVDocModification@@@Z 10006fd4 f   Editor.obj
 0001:00005fed       ?CanEliminate@@YA_NABVDocModification@@@Z 10006fed f   Editor.obj
 0001:00005ffb       ?IsLastStep@@YA_NABVDocModification@@@Z 10006ffb f   Editor.obj
 0001:00006966       ?istrlen@@YAHPBD@Z         10007966 f   Editor.obj
 0001:000069ba       ?WidthStyledText@@YAHPAVSurface@@AAVViewStyle@@HPBDPBEI@Z 100079ba f   Editor.obj
 0001:00006a23       ?WidestLineWidth@@YAHPAVSurface@@AAVViewStyle@@HABUStyledText@@@Z 10007a23 f   Editor.obj
 0001:000072c3       ?IsTrailByte@@YA_NH@Z      100082c3 f   Editor.obj
 0001:000072c3       ?GoodTrailByte@@YA_NH@Z    100082c3 f   Editor.obj
 0001:000074b3       ?MoveTo@Relative@?1??DrawWrapMarker@Editor@@IAEXPAVSurface@@VPRectangle@@_NVColourAllocated@@@Z@QAEXHH@Z 100084b3 f   Editor.obj
 0001:000074d7       ?LineTo@Relative@?1??DrawWrapMarker@Editor@@IAEXPAVSurface@@VPRectangle@@_NVColourAllocated@@@Z@QAEXHH@Z 100084d7 f   Editor.obj
 0001:000074fb       ?SimpleAlphaRectangle@@YAXPAVSurface@@VPRectangle@@VColourAllocated@@H@Z 100084fb f   Editor.obj
 0001:000083ee       ?Close@@YA_NVPoint@@0@Z    100093ee f   Editor.obj
 0001:00008abd       ?ValidMargin@@YA_NK@Z      10009abd f   Editor.obj
 0001:000147cb       ?IsAWordChar@@YA_NH@Z      100157cb f   LexHTML.obj
 0001:00014887       ?GetTextSegment@@YAXAAVAccessor@@IIPADI@Z 10015887 f   LexHTML.obj
 0001:000148da       ?segIsScriptingIndicator@@YA?AW4script_type@@AAVAccessor@@IIW41@@Z 100158da f   LexHTML.obj
 0001:000149e8       ?PrintScriptingIndicatorOffset@@YAHAAVAccessor@@II@Z 100159e8 f   LexHTML.obj
 0001:00014a36       ?ScriptOfState@@YA?AW4script_type@@H@Z 10015a36 f   LexHTML.obj
 0001:00014a7e       ?statePrintForState@@YAHHW4script_mode@@@Z 10015a7e f   LexHTML.obj
 0001:00014aaf       ?stateForPrintState@@YAHH@Z 10015aaf f   LexHTML.obj
 0001:00014acf       ?IsNumber@@YA_NIAAVAccessor@@@Z 10015acf f   LexHTML.obj
 0001:00014b0d       ?isStringState@@YA_NH@Z    10015b0d f   LexHTML.obj
 0001:00014b80       ?classifyAttribHTML@@YAXIIAAVWordList@@AAVAccessor@@@Z 10015b80 f   LexHTML.obj
 0001:00014bfb       ?classifyTagHTML@@YAHIIAAVWordList@@AAVAccessor@@AA_N_N33@Z 10015bfb f   LexHTML.obj
 0001:00014d44       ?classifyWordHTJS@@YAXIIAAVWordList@@AAVAccessor@@W4script_mode@@@Z 10015d44 f   LexHTML.obj
 0001:00014df9       ?classifyWordHTVB@@YAHIIAAVWordList@@AAVAccessor@@W4script_mode@@@Z 10015df9 f   LexHTML.obj
 0001:00014ea8       ?classifyWordHTPy@@YAXIIAAVWordList@@AAVAccessor@@PADW4script_mode@@@Z 10015ea8 f   LexHTML.obj
 0001:00014fa9       ?classifyWordHTPHP@@YAXIIAAVWordList@@AAVAccessor@@@Z 10015fa9 f   LexHTML.obj
 0001:00015045       ?isWordHSGML@@YA_NIIAAVWordList@@AAVAccessor@@@Z 10016045 f   LexHTML.obj
 0001:000150b6       ?isWordCdata@@YA_NIIAAVAccessor@@@Z 100160b6 f   LexHTML.obj
 0001:0001512a       ?StateForScript@@YAHW4script_type@@@Z 1001612a f   LexHTML.obj
 0001:0001515a       ?ishtmlwordchar@@YA_NH@Z   1001615a f   LexHTML.obj
 0001:00015190       ?issgmlwordchar@@YA_NH@Z   10016190 f   LexHTML.obj
 0001:000151c6       ?IsPhpWordStart@@YA_NH@Z   100161c6 f   LexHTML.obj
 0001:000151ea       ?IsPhpWordChar@@YA_NH@Z    100161ea f   LexHTML.obj
 0001:00015207       ?InTagState@@YA_NH@Z       10016207 f   LexHTML.obj
 0001:0001523b       ?IsCommentState@@YA_NH@Z   1001623b f   LexHTML.obj
 0001:00015250       ?IsScriptCommentState@@YA_NH@Z 10016250 f   LexHTML.obj
 0001:00015275       ?isLineEnd@@YA_NH@Z        10016275 f   LexHTML.obj
 0001:0001528a       ?isOKBeforeRE@@YA_NH@Z     1001628a f   LexHTML.obj
 0001:000152a0       ?isPHPStringState@@YA_NH@Z 100162a0 f   LexHTML.obj
 0001:000152bb       ?FindPhpStringDelimiter@@YAHPADHHHAAVAccessor@@AA_N@Z 100162bb f   LexHTML.obj
 0001:0001540f       ?isASPScript@@YA_NH@Z      1001640f f   LexHTML.obj
 0001:00015432       ?ColouriseHBAPiece@@YAXAAVStyleContext@@QAPAVWordList@@@Z 10016432 f   LexHTML.obj
 0001:00015558       ?ColouriseHTMLPiece@@YAXAAVStyleContext@@QAPAVWordList@@@Z 10016558 f   LexHTML.obj
 0001:000157e5       ?ColouriseASPPiece@@YAXAAVStyleContext@@QAPAVWordList@@@Z 100167e5 f   LexHTML.obj
 0001:000158b8       ?ColouriseASPDoc@@YAXIHHQAPAVWordList@@AAVAccessor@@@Z 100168b8 f   LexHTML.obj
 0001:00015901       ?ColourisePHPPiece@@YAXAAVStyleContext@@QAPAVWordList@@@Z 10016901 f   LexHTML.obj
 0001:00015acb       ?ColourisePHPDoc@@YAXIHHQAPAVWordList@@AAVAccessor@@@Z 10016acb f   LexHTML.obj
 0001:00015b88       ?ColouriseHyperTextDoc@@YAXIHHQAPAVWordList@@AAVAccessor@@_N@Z 10016b88 f   LexHTML.obj
 0001:000181c4       ?ColouriseXMLDoc@@YAXIHHQAPAVWordList@@AAVAccessor@@@Z 100191c4 f   LexHTML.obj
 0001:000181e2       ?ColouriseHTMLDoc@@YAXIHHQAPAVWordList@@AAVAccessor@@@Z 100191e2 f   LexHTML.obj
 0001:00018200       ?ColourisePHPScriptDoc@@YAXIHHQAPAVWordList@@AAVAccessor@@@Z 10019200 f   LexHTML.obj
 0001:0001827e       ?isMSSQLOperator@@YA_ND@Z  1001927e f   LexMSSQL.obj
 0001:000182e7       ?classifyWordSQL@@YADIIQAPAVWordList@@AAVAccessor@@II@Z 100192e7 f   LexMSSQL.obj
 0001:000184eb       ?ColouriseMSSQLDoc@@YAXIHHQAPAVWordList@@AAVAccessor@@@Z 100194eb f   LexMSSQL.obj
 0001:00018906       ?FoldMSSQLDoc@@YAXIHHQAPAVWordList@@AAVAccessor@@@Z 10019906 f   LexMSSQL.obj
 0001:00018be8       ?IsAWordChar@@YA_NH@Z      10019be8 f   LexMySQL.obj
 0001:00018be8       ?IsAWordStart@@YA_NH@Z     10019be8 f   LexMySQL.obj
 0001:00018c07       ?ColouriseMySQLDoc@@YAXIHHQAPAVWordList@@AAVAccessor@@@Z 10019c07 f   LexMySQL.obj
 0001:00019020       ?IsStreamCommentStyle@@YA_NH@Z 1001a020 f   LexMySQL.obj
 0001:0001902b       ?FoldMySQLDoc@@YAXIHHQAPAVWordList@@AAVAccessor@@@Z 1001a02b f   LexMySQL.obj
 0001:000194a1       ?IsADoxygenChar@@YA_NH@Z   1001a4a1 f   LexSQL.obj
 0001:000194e8       ?ColouriseSQLDoc@@YAXIHHQAPAVWordList@@AAVAccessor@@@Z 1001a4e8 f   LexSQL.obj
 0001:000199a6       ?IsStreamCommentStyle@@YA_NH@Z 1001a9a6 f   LexSQL.obj
 0001:000199c1       ?FoldSQLDoc@@YAXIHHQAPAVWordList@@AAVAccessor@@@Z 1001a9c1 f   LexSQL.obj
 0001:00019d85       ?DrawBox@@YAXPAVSurface@@HHHVColourAllocated@@1@Z 1001ad85 f   LineMarker.obj
 0001:00019dc7       ?DrawCircle@@YAXPAVSurface@@HHHVColourAllocated@@1@Z 1001adc7 f   LineMarker.obj
 0001:00019e09       ?DrawPlus@@YAXPAVSurface@@HHHVColourAllocated@@@Z 1001ae09 f   LineMarker.obj
 0001:00019e81       ?DrawMinus@@YAXPAVSurface@@HHHVColourAllocated@@@Z 1001ae81 f   LineMarker.obj
 0001:0001a7a8       ?NumberLines@@YAHPBD@Z     1001b7a8 f   PerLine.obj
 0001:0001a7c3       ?AllocateAnnotation@@YAPADHH@Z 1001b7c3 f   PerLine.obj
 0001:0001b3ed       ?SetWindowPointer@@YAXPAUHWND__@@PAX@Z 1001c3ed f   PlatWin.obj
 0001:0001b3ed       ?SetWindowPointer@@YAXPAUHWND__@@PAX@Z 1001c3ed f   PlatWin.obj
 0001:0001b41b       ?RectFromPRectangle@@YA?AUtagRECT@@VPRectangle@@@Z 1001c41b f   PlatWin.obj
 0001:0001b4e7       ?SetLogFont@@YAXAAUtagLOGFONTA@@PBDHH_N2@Z 1001c4e7 f   PlatWin.obj
 0001:0001b53d       ?HashFont@@YAHPBDHH_N1@Z   1001c53d f   PlatWin.obj
 0001:0001ba74       ?AllFour@@YAXPAKHHHHK@Z    1001ca74 f   PlatWin.obj
 0001:0001be88       ?Window_SendMessage@@YAJPAVWindow@@IIJ@Z 1001ce88 f   PlatWin.obj
 0001:0001c964       ?CharPtrFromSPtr@@YAPADJ@Z 1001d964 f   PlatWin.obj
 0001:0001de41       ?ListBoxX_Register@@YA_NXZ 1001ee41 f   PlatWin.obj
 0001:0001e7fa       ?NextBadU@@YAHPBDHHAAH@Z   1001f7fa f   PositionCache.obj
 0001:0001f58e       ?ArrayFromWordList@@YAPAPADPADPAH_N@Z 1002058e f   PropSet.obj
 0001:0001f6d4       ?SortWordList@@YAXPAPADI@Z 100206d4 f   PropSet.obj
 0001:0001fb8a       ?ExpandAllInPlace@@YAHABVPropSet@@AAVSString@@HABUVarChain@@@Z 10020b8a f   PropSet.obj
 0001:0001ff32       ?GetHexaChar@@YAHEE@Z      10020f32 f   RESearch.obj
 0001:00022631       ?LoWord@@YAGK@Z            10023631 f   ScintillaWin.obj
 0001:00022637       ?HiWord@@YAGK@Z            10023637 f   ScintillaWin.obj
 0001:0002263b       ?InputCodePage@@YAHXZ      1002363b f   ScintillaWin.obj
 0001:00022685       ?KeyTranslate@@YAHH@Z      10023685 f   ScintillaWin.obj
 0001:000228e8       ?SciMessageFromEM@@YAII@Z  100238e8 f   ScintillaWin.obj
 0001:00022a07       ?CodePageFromCharSet@@YAIKI@Z 10023a07 f   ScintillaWin.obj
 0001:00023c6e       ?CompareDevCap@@YA_NPAUHDC__@@0H@Z 10024c6e f   ScintillaWin.obj
 0001:0002436c       ?PointerFromWindow@@YAPAXPAUHWND__@@@Z 1002536c f   ScintillaWin.obj
 0001:0002436c       ?PointerFromWindow@@YAPAXPAUHWND__@@@Z 1002536c f   ScintillaWin.obj
 0001:00025ac8       ?getRangeLowered@@YAXIIAAVAccessor@@PADI@Z 10026ac8 f   StyleContext.obj
 0001:00026d5b       ?NextField@@YAPBDPBD@Z     10027d5b f   XPM.obj
 0001:00026d8e       ?MeasureLength@@YAIPBD@Z   10027d8e f   XPM.obj
 0001:00027919       ?CatchGuardHandler@@YA?AW4_EXCEPTION_DISPOSITION@@PAUEHExceptionRecord@@PAUCatchGuardRN@@PAX2@Z 10028919 f   LIBCMT:_trnsctrl_.obj
 0001:00027a23       ?TranslatorGuardHandler@@YA?AW4_EXCEPTION_DISPOSITION@@PAUEHExceptionRecord@@PAUTranslatorGuardRN@@PAX2@Z 10028a23 f   LIBCMT:_trnsctrl_.obj
 0001:00029058       __onexit_nolock            1002a058 f   LIBCMT:onexit.obj
 0001:0002ab80       _swap                      1002bb80 f   LIBCMT:qsort.obj
 0001:0002abb0       _shortsort                 1002bbb0 f   LIBCMT:qsort.obj
 0001:0002afc2       ___DllMainCRTStartup       1002bfc2 f   LIBCMT:dllcrt0.obj
 0001:0002b4b8       ?ExFilterRethrow@@YAHPAU_EXCEPTION_POINTERS@@@Z 1002c4b8 f   LIBCMT:frame.obj
 0001:0002b57b       ?IsInExceptionSpec@@YAEPAUEHExceptionRecord@@PBU_s_ESTypeList@@@Z 1002c57b f   LIBCMT:frame.obj
 0001:0002b5f6       ?CallUnexpected@@YAXPBU_s_ESTypeList@@@Z 1002c5f6 f   LIBCMT:frame.obj
 0001:0002b627       __catch$?CallUnexpected@@YAXPBU_s_ESTypeList@@@Z$0 1002c627 f   LIBCMT:frame.obj
 0001:0002b63f       ?CallCatchBlock@@YAPAXPAUEHExceptionRecord@@PAUEHRegistrationNode@@PAU_CONTEXT@@PBU_s_FuncInfo@@PAXHK@Z 1002c63f f   LIBCMT:frame.obj
 0001:0002b9ec       ?CatchIt@@YAXPAUEHExceptionRecord@@PAUEHRegistrationNode@@PAU_CONTEXT@@PAXPBU_s_FuncInfo@@PBU_s_HandlerType@@PBU_s_CatchableType@@PBU_s_TryBlockMapEntry@@H1E@Z 1002c9ec f   LIBCMT:frame.obj
 0001:0002ba5a       ?FindHandlerForForeignException@@YAXPAUEHExceptionRecord@@PAUEHRegistrationNode@@PAU_CONTEXT@@PAXPBU_s_FuncInfo@@HH1@Z 1002ca5a f   LIBCMT:frame.obj
 0001:0002bb4e       ?FindHandler@@YAXPAUEHExceptionRecord@@PAUEHRegistrationNode@@PAU_CONTEXT@@PAXPBU_s_FuncInfo@@EH1@Z 1002cb4e f   LIBCMT:frame.obj
 0001:0002c939       _fastcopy_I                1002d939 f   LIBCMT:p4_memcpy.obj
 0001:0002caa3       _has_osfxsr_set            1002daa3 f   LIBCMT:cpu_disp.obj
 0001:0002cd4c       ?CPtoLCID@@YAHH@Z          1002dd4c f   LIBCMT:mbctype.obj
 0001:0002cd7b       ?setSBCS@@YAXPAUthreadmbcinfostruct@@@Z 1002dd7b f   LIBCMT:mbctype.obj
 0001:0002cddf       ?setSBUpLow@@YAXPAUthreadmbcinfostruct@@@Z 1002dddf f   LIBCMT:mbctype.obj
 0001:0002d016       ?getSystemCP@@YAHH@Z       1002e016 f   LIBCMT:mbctype.obj
 0001:0002d6a0       __updatetlocinfoEx_nolock  1002e6a0 f   LIBCMT:setlocal.obj
 0001:0002db63       _write_char                1002eb63 f   LIBCMT:output.obj
 0001:0002db96       _write_multi_char          1002eb96 f   LIBCMT:output.obj
 0001:0002dbbc       _write_string              1002ebbc f   LIBCMT:output.obj
 0001:0002e989       _fastzero_I                1002f989 f   LIBCMT:p4_memset.obj
 0001:0002ea8f       ?__crtLCMapStringA_stat@@YAHPAUlocaleinfo_struct@@KKPBDHPADHHH@Z 1002fa8f f   LIBCMT:a_map.obj
 0001:0002f0f4       __initterm                 100300f4 f   LIBCMT:crt0dat.obj
 0001:0002f1ba       _doexit                    100301ba f   LIBCMT:crt0dat.obj
 0001:0002f571       __shift                    10030571 f   LIBCMT:cvt.obj
 0001:0002f5b6       __cftoe2_l                 100305b6 f   LIBCMT:cvt.obj
 0001:0002fb88       __cftof2_l                 10030b88 f   LIBCMT:cvt.obj
 0001:0002ffb0       _siglookup                 10030fb0 f   LIBCMT:winsig.obj
 0001:000301a4       ?strtoxl@@YAKPAUlocaleinfo_struct@@PBDPAPBDHH@Z 100311a4 f   LIBCMT:strtol.obj
 0001:0003077e       _parse_cmdline             1003177e f   LIBCMT:stdargv.obj
 0001:000310c0       __unwind_handler4          100320c0 f   LIBCMT:exsup4.obj
 0001:00031c7c       __unwind_handler           10032c7c f   LIBCMT:exsup.obj
 0001:00031eed       ?__crtGetStringTypeA_stat@@YAHPAUlocaleinfo_struct@@KPBDHPAGHHH@Z 10032eed f   LIBCMT:a_str.obj
 0001:00034044       ?x_ismbbtype_l@@YAHPAUlocaleinfo_struct@@IHH@Z 10035044 f   LIBCMT:ismbbyte.obj
 0001:000345b8       _flsall                    100355b8 f   LIBCMT:fflush.obj
 0001:0003613f       __hw_cw                    1003713f f   LIBCMT:_ieee87_.obj
 0001:000361cd       ___hw_cw_sse2              100371cd f   LIBCMT:_ieee87_.obj
 0001:00036be2       __unwindfunclet$??1CallTip@@QAE@XZ$0 10037be2 f   CallTip.obj
 0001:00036bed       __unwindfunclet$??1CallTip@@QAE@XZ$1 10037bed f   CallTip.obj
 0001:00036bf8       __unwindfunclet$??1CallTip@@QAE@XZ$2 10037bf8 f   CallTip.obj
 0001:00036c03       __ehhandler$??1CallTip@@QAE@XZ 10037c03 f   CallTip.obj
 0001:00036c1e       __unwindfunclet$?AllocStyles@ViewStyle@@QAEXI@Z$0 10037c1e f   CellBuffer.obj
 0001:00036c1e       __unwindfunclet$?EnsureUndoRoom@UndoHistory@@AAEXXZ$0 10037c1e f   CellBuffer.obj
 0001:00036c28       __ehhandler$?AllocStyles@ViewStyle@@QAEXI@Z 10037c28 f   CellBuffer.obj
 0001:00036c28       __ehhandler$?EnsureUndoRoom@UndoHistory@@AAEXXZ 10037c28 f   CellBuffer.obj
 0001:00036c43       __unwindfunclet$??0SplitVectorWithRangeAdd@@QAE@H@Z$0 10037c43 f   CellBuffer.obj
 0001:00036c4b       __ehhandler$??0SplitVectorWithRangeAdd@@QAE@H@Z 10037c4b f   CellBuffer.obj
 0001:00036c66       __unwindfunclet$??0PositionCache@@QAE@XZ$0 10037c66 f   CellBuffer.obj
 0001:00036c66       __unwindfunclet$?LoadLexerLibrary@LexerManager@@AAEXPBD@Z$0 10037c66 f   CellBuffer.obj
 0001:00036c66       __unwindfunclet$?Allocate@Partitioning@@AAEXH@Z$0 10037c66 f   CellBuffer.obj
 0001:00036c66       __unwindfunclet$??0UndoHistory@@QAE@XZ$0 10037c66 f   CellBuffer.obj
 0001:00036c66       __unwindfunclet$?CreateRegexSearch@@YAPAVRegexSearchBase@@PAVCharClassify@@@Z$0 10037c66 f   CellBuffer.obj
 0001:00036c66       __unwindfunclet$?SetXPM@LineMarker@@QAEXPBD@Z$0 10037c66 f   CellBuffer.obj
 0001:00036c66       __unwindfunclet$?Allocate@ListBox@@SAPAV1@XZ$0 10037c66 f   CellBuffer.obj
 0001:00036c66       __unwindfunclet$??0RunStyles@@QAE@XZ$0 10037c66 f   CellBuffer.obj
 0001:00036c70       __ehhandler$??0PositionCache@@QAE@XZ 10037c70 f   CellBuffer.obj
 0001:00036c70       __ehhandler$?CreateRegexSearch@@YAPAVRegexSearchBase@@PAVCharClassify@@@Z 10037c70 f   CellBuffer.obj
 0001:00036c70       __ehhandler$?Allocate@ListBox@@SAPAV1@XZ 10037c70 f   CellBuffer.obj
 0001:00036c70       __ehhandler$?SetXPM@LineMarker@@QAEXPBD@Z 10037c70 f   CellBuffer.obj
 0001:00036c70       __ehhandler$??0RunStyles@@QAE@XZ 10037c70 f   CellBuffer.obj
 0001:00036c70       __ehhandler$??0UndoHistory@@QAE@XZ 10037c70 f   CellBuffer.obj
 0001:00036c70       __ehhandler$?Allocate@Partitioning@@AAEXH@Z 10037c70 f   CellBuffer.obj
 0001:00036c70       __ehhandler$?LoadLexerLibrary@LexerManager@@AAEXPBD@Z 10037c70 f   CellBuffer.obj
 0001:00036c8b       __unwindfunclet$??1LineVector@@QAE@XZ$0 10037c8b f   CellBuffer.obj
 0001:00036c8b       __unwindfunclet$??0LineVector@@QAE@XZ$0 10037c8b f   CellBuffer.obj
 0001:00036c93       __ehhandler$??1LineVector@@QAE@XZ 10037c93 f   CellBuffer.obj
 0001:00036c93       __ehhandler$??0LineVector@@QAE@XZ 10037c93 f   CellBuffer.obj
 0001:00036cae       __unwindfunclet$??0CellBuffer@@QAE@XZ$0 10037cae f   CellBuffer.obj
 0001:00036cae       __unwindfunclet$??1CellBuffer@@QAE@XZ$0 10037cae f   CellBuffer.obj
 0001:00036cb6       __unwindfunclet$??0CellBuffer@@QAE@XZ$1 10037cb6 f   CellBuffer.obj
 0001:00036cb6       __unwindfunclet$??1CellBuffer@@QAE@XZ$1 10037cb6 f   CellBuffer.obj
 0001:00036cc1       __unwindfunclet$??1CellBuffer@@QAE@XZ$2 10037cc1 f   CellBuffer.obj
 0001:00036cc1       __unwindfunclet$??0CellBuffer@@QAE@XZ$2 10037cc1 f   CellBuffer.obj
 0001:00036ccc       __ehhandler$??1CellBuffer@@QAE@XZ 10037ccc f   CellBuffer.obj
 0001:00036ccc       __ehhandler$??0CellBuffer@@QAE@XZ 10037ccc f   CellBuffer.obj
 0001:00036ce7       __unwindfunclet$?EnsureData@ContractionState@@AAEXXZ$0 10037ce7 f   ContractionState.obj
 0001:00036cf1       __unwindfunclet$?EnsureData@ContractionState@@AAEXXZ$1 10037cf1 f   ContractionState.obj
 0001:00036cfb       __unwindfunclet$?EnsureData@ContractionState@@AAEXXZ$2 10037cfb f   ContractionState.obj
 0001:00036d05       __unwindfunclet$?EnsureData@ContractionState@@AAEXXZ$3 10037d05 f   ContractionState.obj
 0001:00036d0f       __ehhandler$?EnsureData@ContractionState@@AAEXXZ 10037d0f f   ContractionState.obj
 0001:00036d2a       __unwindfunclet$?Add@XPMSet@@QAEXHPBD@Z$0 10037d2a f   Decoration.obj
 0001:00036d2a       __unwindfunclet$?Create@DecorationList@@AAEPAVDecoration@@HH@Z$0 10037d2a f   Decoration.obj
 0001:00036d2a       __unwindfunclet$?SetSize@PositionCache@@QAEXI@Z$0 10037d2a f   Decoration.obj
 0001:00036d2a       __unwindfunclet$?SetDocPointer@Editor@@IAEXPAVDocument@@@Z$0 10037d2a f   Decoration.obj
 0001:00036d34       __ehhandler$?SetSize@PositionCache@@QAEXI@Z 10037d34 f   Decoration.obj
 0001:00036d34       __ehhandler$?Create@DecorationList@@AAEPAVDecoration@@HH@Z 10037d34 f   Decoration.obj
 0001:00036d34       __ehhandler$?Add@XPMSet@@QAEXHPBD@Z 10037d34 f   Decoration.obj
 0001:00036d34       __ehhandler$?SetDocPointer@Editor@@IAEXPAVDocument@@@Z 10037d34 f   Decoration.obj
 0001:00036d4f       __unwindfunclet$??1Document@@UAE@XZ$0 10037d4f f   Document.obj
 0001:00036d57       __unwindfunclet$??1Document@@UAE@XZ$1 10037d57 f   Document.obj
 0001:00036d62       __unwindfunclet$??1Document@@UAE@XZ$2 10037d62 f   Document.obj
 0001:00036d70       __ehhandler$??1Document@@UAE@XZ 10037d70 f   Document.obj
 0001:00036d8b       __unwindfunclet$??0BuiltinRegex@@QAE@PAVCharClassify@@@Z$0 10037d8b f   Document.obj
 0001:00036d93       __ehhandler$??0BuiltinRegex@@QAE@PAVCharClassify@@@Z 10037d93 f   Document.obj
 0001:00036dae       __unwindfunclet$??1BuiltinRegex@@UAE@XZ$0 10037dae f   Document.obj
 0001:00036db6       __unwindfunclet$??1BuiltinRegex@@UAE@XZ$1 10037db6 f   Document.obj
 0001:00036dc1       __ehhandler$??1BuiltinRegex@@UAE@XZ 10037dc1 f   Document.obj
 0001:00036ddc       __unwindfunclet$?FindText@BuiltinRegex@@UAEJPAVDocument@@HHPBD_N22HPAH@Z$0 10037ddc f   Document.obj
 0001:00036de4       __ehhandler$?FindText@BuiltinRegex@@UAEJPAVDocument@@HHPBD_N22HPAH@Z 10037de4 f   Document.obj
 0001:00036dff       __unwindfunclet$?SubstituteByPosition@BuiltinRegex@@UAEPBDPAVDocument@@PBDPAH@Z$0 10037dff f   Document.obj
 0001:00036e07       __ehhandler$?SubstituteByPosition@BuiltinRegex@@UAEPBDPAVDocument@@PBDPAH@Z 10037e07 f   Document.obj
 0001:00036e22       __unwindfunclet$??0Document@@QAE@XZ$0 10037e22 f   Document.obj
 0001:00036e2a       __unwindfunclet$??0Document@@QAE@XZ$1 10037e2a f   Document.obj
 0001:00036e35       __unwindfunclet$??0Document@@QAE@XZ$2 10037e35 f   Document.obj
 0001:00036e43       __ehhandler$??0Document@@QAE@XZ 10037e43 f   Document.obj
 0001:00036e5e       __unwindfunclet$?DrawLine@Editor@@IAEXPAVSurface@@AAVViewStyle@@HHHVPRectangle@@PAVLineLayout@@H@Z$0 10037e5e f   Editor.obj
 0001:00036e69       __unwindfunclet$?DrawLine@Editor@@IAEXPAVSurface@@AAVViewStyle@@HHHVPRectangle@@PAVLineLayout@@H@Z$1 10037e69 f   Editor.obj
 0001:00036e74       __ehhandler$?DrawLine@Editor@@IAEXPAVSurface@@AAVViewStyle@@HHHVPRectangle@@PAVLineLayout@@H@Z 10037e74 f   Editor.obj
 0001:00036e92       __unwindfunclet$?FormatRange@Editor@@IAEJ_NPAURangeToFormat@@@Z$0 10037e92 f   Editor.obj
 0001:00036e9a       __unwindfunclet$?FormatRange@Editor@@IAEJ_NPAURangeToFormat@@@Z$1 10037e9a f   Editor.obj
 0001:00036ea2       __unwindfunclet$?FormatRange@Editor@@IAEJ_NPAURangeToFormat@@@Z$2 10037ea2 f   Editor.obj
 0001:00036ead       __unwindfunclet$?FormatRange@Editor@@IAEJ_NPAURangeToFormat@@@Z$3 10037ead f   Editor.obj
 0001:00036eb5       __ehhandler$?FormatRange@Editor@@IAEJ_NPAURangeToFormat@@@Z 10037eb5 f   Editor.obj
 0001:00036ee0       __unwindfunclet$?WrapCount@Editor@@IAEHH@Z$0 10037ee0 f   Editor.obj
 0001:00036ee8       __unwindfunclet$?WrapCount@Editor@@IAEHH@Z$1 10037ee8 f   Editor.obj
 0001:00036ef0       __ehhandler$?WrapCount@Editor@@IAEHH@Z 10037ef0 f   Editor.obj
 0001:00036f0b       __unwindfunclet$??0Editor@@IAE@XZ$0 10037f0b f   Editor.obj
 0001:00036f13       __unwindfunclet$??0Editor@@IAE@XZ$1 10037f13 f   Editor.obj
 0001:00036f1e       __unwindfunclet$??0Editor@@IAE@XZ$2 10037f1e f   Editor.obj
 0001:00036f29       __unwindfunclet$??0Editor@@IAE@XZ$3 10037f29 f   Editor.obj
 0001:00036f37       __unwindfunclet$??0Editor@@IAE@XZ$4 10037f37 f   Editor.obj
 0001:00036f45       __unwindfunclet$??0Editor@@IAE@XZ$5 10037f45 f   Editor.obj
 0001:00036f53       __unwindfunclet$??0Editor@@IAE@XZ$6 10037f53 f   Editor.obj
 0001:00036f61       __unwindfunclet$??0Editor@@IAE@XZ$7 10037f61 f   Editor.obj
 0001:00036f6f       __unwindfunclet$??0Editor@@IAE@XZ$8 10037f6f f   Editor.obj
 0001:00036f7d       __unwindfunclet$??0Editor@@IAE@XZ$9 10037f7d f   Editor.obj
 0001:00036f87       __ehhandler$??0Editor@@IAE@XZ 10037f87 f   Editor.obj
 0001:00036fa2       __unwindfunclet$??1Editor@@MAE@XZ$0 10037fa2 f   Editor.obj
 0001:00036faa       __unwindfunclet$??1Editor@@MAE@XZ$1 10037faa f   Editor.obj
 0001:00036fb5       __unwindfunclet$??1Editor@@MAE@XZ$2 10037fb5 f   Editor.obj
 0001:00036fc0       __unwindfunclet$??1Editor@@MAE@XZ$3 10037fc0 f   Editor.obj
 0001:00036fce       __unwindfunclet$??1Editor@@MAE@XZ$4 10037fce f   Editor.obj
 0001:00036fdc       __unwindfunclet$??1Editor@@MAE@XZ$5 10037fdc f   Editor.obj
 0001:00036fea       __unwindfunclet$??1Editor@@MAE@XZ$6 10037fea f   Editor.obj
 0001:00036ff8       __unwindfunclet$??1Editor@@MAE@XZ$7 10037ff8 f   Editor.obj
 0001:00037006       __unwindfunclet$??1Editor@@MAE@XZ$8 10038006 f   Editor.obj
 0001:00037014       __ehhandler$??1Editor@@MAE@XZ 10038014 f   Editor.obj
 0001:0003702f       __unwindfunclet$?PositionFromLocationClose@Editor@@IAEHVPoint@@@Z$0 1003802f f   Editor.obj
 0001:00037037       __unwindfunclet$?PositionFromLocationClose@Editor@@IAEHVPoint@@@Z$1 10038037 f   Editor.obj
 0001:0003703f       __ehhandler$?PositionFromLocationClose@Editor@@IAEHVPoint@@@Z 1003803f f   Editor.obj
 0001:0003705a       __unwindfunclet$?DisplayFromPosition@Editor@@IAEHH@Z$0 1003805a f   Editor.obj
 0001:00037062       __unwindfunclet$?DisplayFromPosition@Editor@@IAEHH@Z$1 10038062 f   Editor.obj
 0001:0003706a       __ehhandler$?DisplayFromPosition@Editor@@IAEHH@Z 1003806a f   Editor.obj
 0001:00037085       __unwindfunclet$?WrapOneLine@Editor@@IAE_NPAVSurface@@H@Z$0 10038085 f   Editor.obj
 0001:0003708d       __ehhandler$?WrapOneLine@Editor@@IAE_NPAVSurface@@H@Z 1003808d f   Editor.obj
 0001:000370a8       __unwindfunclet$?LinesSplit@Editor@@IAEXH@Z$0 100380a8 f   Editor.obj
 0001:000370b0       __unwindfunclet$?LinesSplit@Editor@@IAEXH@Z$1 100380b0 f   Editor.obj
 0001:000370b8       __ehhandler$?LinesSplit@Editor@@IAEXH@Z 100380b8 f   Editor.obj
 0001:000370d3       __unwindfunclet$?Copy@ScintillaWin@@EAEXXZ$0 100380d3 f   Editor.obj
 0001:000370d3       __unwindfunclet$?CopyAllowLine@ScintillaWin@@EAEXXZ$0 100380d3 f   Editor.obj
 0001:000370d3       __unwindfunclet$?CopyText@Editor@@IAEXHPBD@Z$0 100380d3 f   Editor.obj
 0001:000370d3       __unwindfunclet$?CopyRangeToClipboard@Editor@@IAEXHH@Z$0 100380d3 f   Editor.obj
 0001:000370d3       __unwindfunclet$?CopyAllowLine@Editor@@MAEXXZ$0 100380d3 f   Editor.obj
 0001:000370db       __ehhandler$?CopyText@Editor@@IAEXHPBD@Z 100380db f   Editor.obj
 0001:000370db       __ehhandler$?Copy@ScintillaWin@@EAEXXZ 100380db f   Editor.obj
 0001:000370db       __ehhandler$?CopyAllowLine@ScintillaWin@@EAEXXZ 100380db f   Editor.obj
 0001:000370db       __ehhandler$?CopyAllowLine@Editor@@MAEXXZ 100380db f   Editor.obj
 0001:000370db       __ehhandler$?CopyRangeToClipboard@Editor@@IAEXHH@Z 100380db f   Editor.obj
 0001:000370f6       __unwindfunclet$?LocationFromPosition@Editor@@IAE?AVPoint@@H@Z$0 100380f6 f   Editor.obj
 0001:000370fe       __unwindfunclet$?LocationFromPosition@Editor@@IAE?AVPoint@@H@Z$1 100380fe f   Editor.obj
 0001:00037106       __ehhandler$?LocationFromPosition@Editor@@IAE?AVPoint@@H@Z 10038106 f   Editor.obj
 0001:00037121       __unwindfunclet$?PositionFromLocation@Editor@@IAEHVPoint@@@Z$0 10038121 f   Editor.obj
 0001:00037129       __unwindfunclet$?PositionFromLocation@Editor@@IAEHVPoint@@@Z$1 10038129 f   Editor.obj
 0001:00037131       __ehhandler$?PositionFromLocation@Editor@@IAEHVPoint@@@Z 10038131 f   Editor.obj
 0001:0003714c       __unwindfunclet$?PositionFromLineX@Editor@@IAEHHH@Z$0 1003814c f   Editor.obj
 0001:00037154       __unwindfunclet$?PositionFromLineX@Editor@@IAEHHH@Z$1 10038154 f   Editor.obj
 0001:0003715c       __ehhandler$?PositionFromLineX@Editor@@IAEHHH@Z 1003815c f   Editor.obj
 0001:00037177       __unwindfunclet$?WrapLines@Editor@@IAE_N_NH@Z$0 10038177 f   Editor.obj
 0001:0003717f       __ehhandler$?WrapLines@Editor@@IAE_N_NH@Z 1003817f f   Editor.obj
 0001:0003719a       __unwindfunclet$?StartEndDisplayLine@Editor@@IAEHH_N@Z$0 1003819a f   Editor.obj
 0001:000371a2       __unwindfunclet$?StartEndDisplayLine@Editor@@IAEHH_N@Z$1 100381a2 f   Editor.obj
 0001:000371aa       __ehhandler$?StartEndDisplayLine@Editor@@IAEHH_N@Z 100381aa f   Editor.obj
 0001:000371c5       __unwindfunclet$?Paint@Editor@@IAEXPAVSurface@@VPRectangle@@@Z$0 100381c5 f   Editor.obj
 0001:000371cd       __unwindfunclet$?Paint@Editor@@IAEXPAVSurface@@VPRectangle@@@Z$1 100381cd f   Editor.obj
 0001:000371d5       __ehhandler$?Paint@Editor@@IAEXPAVSurface@@VPRectangle@@@Z 100381d5 f   Editor.obj
 0001:000371f3       __unwindfunclet$?WndProc@Editor@@UAEJIKJ@Z$0 100381f3 f   Editor.obj
 0001:000371fb       __unwindfunclet$?WndProc@Editor@@UAEJIKJ@Z$1 100381fb f   Editor.obj
 0001:00037205       __ehhandler$?WndProc@Editor@@UAEJIKJ@Z 10038205 f   Editor.obj
 0001:00037220       __unwindfunclet$?AddCharUTF@Editor@@MAEXPADI_N@Z$0 10038220 f   Editor.obj
 0001:00037228       __ehhandler$?AddCharUTF@Editor@@MAEXPADI_N@Z 10038228 f   Editor.obj
 0001:00037243       __unwindfunclet$?WordListsToStrings@@YAPAPADQAPAVWordList@@@Z$0 10038243 f   ExternalLexer.obj
 0001:0003724b       __ehhandler$?WordListsToStrings@@YAPAPADQAPAVWordList@@@Z 1003824b f   ExternalLexer.obj
 0001:00037266       __unwindfunclet$??0LexerLibrary@@QAE@PBD@Z$0 10038266 f   ExternalLexer.obj
 0001:00037274       __unwindfunclet$??0LexerLibrary@@QAE@PBD@Z$1 10038274 f   ExternalLexer.obj
 0001:00037281       __ehhandler$??0LexerLibrary@@QAE@PBD@Z 10038281 f   ExternalLexer.obj
 0001:000372a9       __unwindfunclet$??1LexerLibrary@@QAE@XZ$0 100382a9 f   ExternalLexer.obj
 0001:000372b4       __ehhandler$??1LexerLibrary@@QAE@XZ 100382b4 f   ExternalLexer.obj
 0001:000372cf       __unwindfunclet$?ColouriseHyperTextDoc@@YAXIHHQAPAVWordList@@AAVAccessor@@_N@Z$0 100382cf f   LexHTML.obj
 0001:000372da       __unwindfunclet$?ColouriseHyperTextDoc@@YAXIHHQAPAVWordList@@AAVAccessor@@_N@Z$1 100382da f   LexHTML.obj
 0001:000372e5       __unwindfunclet$?ColouriseHyperTextDoc@@YAXIHHQAPAVWordList@@AAVAccessor@@_N@Z$2 100382e5 f   LexHTML.obj
 0001:000372f0       __ehhandler$?ColouriseHyperTextDoc@@YAXIHHQAPAVWordList@@AAVAccessor@@_N@Z 100382f0 f   LexHTML.obj
 0001:0003731b       __unwindfunclet$??1LineState@@UAE@XZ$0 1003831b f   PerLine.obj
 0001:0003731b       __unwindfunclet$??1LineLevels@@UAE@XZ$0 1003831b f   PerLine.obj
 0001:00037323       __ehhandler$??1LineLevels@@UAE@XZ 10038323 f   PerLine.obj
 0001:00037323       __ehhandler$??1LineState@@UAE@XZ 10038323 f   PerLine.obj
 0001:0003733e       __unwindfunclet$??1LineMarkers@@UAE@XZ$0 1003833e f   PerLine.obj
 0001:0003733e       __unwindfunclet$??1LineAnnotation@@UAE@XZ$0 1003833e f   PerLine.obj
 0001:00037346       __unwindfunclet$??1LineMarkers@@UAE@XZ$1 10038346 f   PerLine.obj
 0001:00037346       __unwindfunclet$??1LineAnnotation@@UAE@XZ$1 10038346 f   PerLine.obj
 0001:00037351       __ehhandler$??1LineAnnotation@@UAE@XZ 10038351 f   PerLine.obj
 0001:00037351       __ehhandler$??1LineMarkers@@UAE@XZ 10038351 f   PerLine.obj
 0001:0003736c       __unwindfunclet$??0TextWide@@QAE@PBDH_NH@Z$0 1003836c f   PlatWin.obj
 0001:00037374       __ehhandler$??0TextWide@@QAE@PBDH_NH@Z 10038374 f   PlatWin.obj
 0001:0003738f       __unwindfunclet$?MeasureWidths@SurfaceImpl@@UAEXAAVFont@@PBDHPAH@Z$0 1003838f f   PlatWin.obj
 0001:0003739a       __unwindfunclet$?MeasureWidths@SurfaceImpl@@UAEXAAVFont@@PBDHPAH@Z$2 1003839a f   PlatWin.obj
 0001:000373a2       __ehhandler$?MeasureWidths@SurfaceImpl@@UAEXAAVFont@@PBDHPAH@Z 100383a2 f   PlatWin.obj
 0001:000373cd       __unwindfunclet$??0ListBoxX@@QAE@XZ$0 100383cd f   PlatWin.obj
 0001:000373d5       __ehhandler$??0ListBoxX@@QAE@XZ 100383d5 f   PlatWin.obj
 0001:000373f0       __unwindfunclet$??1ListBoxX@@UAE@XZ$0 100383f0 f   PlatWin.obj
 0001:000373f8       __unwindfunclet$??1ListBoxX@@UAE@XZ$1 100383f8 f   PlatWin.obj
 0001:00037403       __ehhandler$??1ListBoxX@@UAE@XZ 10038403 f   PlatWin.obj
 0001:0003741e       __unwindfunclet$?DrawTextCommon@SurfaceImpl@@QAEXVPRectangle@@AAVFont@@HPBDHI@Z$0 1003841e f   PlatWin.obj
 0001:00037426       __ehhandler$?DrawTextCommon@SurfaceImpl@@QAEXVPRectangle@@AAVFont@@HPBDHI@Z 10038426 f   PlatWin.obj
 0001:0003744e       __unwindfunclet$?Retrieve@LineLayoutCache@@QAEPAVLineLayout@@HHHHHH@Z$0 1003844e f   PositionCache.obj
 0001:00037458       __unwindfunclet$?Retrieve@LineLayoutCache@@QAEPAVLineLayout@@HHHHHH@Z$1 10038458 f   PositionCache.obj
 0001:00037462       __ehhandler$?Retrieve@LineLayoutCache@@QAEPAVLineLayout@@HHHHHH@Z 10038462 f   PositionCache.obj
 0001:0003747d       __unwindfunclet$??0SString@@QAE@PBD@Z$0 1003847d f   PropSet.obj
 0001:0003747d       __unwindfunclet$??0SString@@QAE@PBDII@Z$0 1003847d f   PropSet.obj
 0001:00037485       __ehhandler$??0SString@@QAE@PBDII@Z 10038485 f   PropSet.obj
 0001:00037485       __ehhandler$??0SString@@QAE@PBD@Z 10038485 f   PropSet.obj
 0001:000374a0       __unwindfunclet$?ExpandAllInPlace@@YAHABVPropSet@@AAVSString@@HABUVarChain@@@Z$0 100384a0 f   PropSet.obj
 0001:000374a8       __unwindfunclet$?ExpandAllInPlace@@YAHABVPropSet@@AAVSString@@HABUVarChain@@@Z$1 100384a8 f   PropSet.obj
 0001:000374b0       __ehhandler$?ExpandAllInPlace@@YAHABVPropSet@@AAVSString@@HABUVarChain@@@Z 100384b0 f   PropSet.obj
 0001:000374cb       __unwindfunclet$?GetExpanded@PropSet@@QBE?AVSString@@PBD@Z$0 100384cb f   PropSet.obj
 0001:000374e4       __ehhandler$?GetExpanded@PropSet@@QBE?AVSString@@PBD@Z 100384e4 f   PropSet.obj
 0001:000374ff       __unwindfunclet$?GetInt@PropSet@@QBEHPBDH@Z$0 100384ff f   PropSet.obj
 0001:00037507       __ehhandler$?GetInt@PropSet@@QBEHPBDH@Z 10038507 f   PropSet.obj
 0001:00037522       __unwindfunclet$??0ScintillaBase@@IAE@XZ$0 10038522 f   ScintillaBase.obj
 0001:00037522       __unwindfunclet$??1ScintillaBase@@MAE@XZ$0 10038522 f   ScintillaBase.obj
 0001:0003752a       __unwindfunclet$??0ScintillaBase@@IAE@XZ$1 1003852a f   ScintillaBase.obj
 0001:0003752a       __unwindfunclet$??1ScintillaBase@@MAE@XZ$1 1003852a f   ScintillaBase.obj
 0001:00037538       __unwindfunclet$??1ScintillaBase@@MAE@XZ$2 10038538 f   ScintillaBase.obj
 0001:00037538       __unwindfunclet$??0ScintillaBase@@IAE@XZ$2 10038538 f   ScintillaBase.obj
 0001:00037546       __unwindfunclet$??0ScintillaBase@@IAE@XZ$3 10038546 f   ScintillaBase.obj
 0001:00037546       __unwindfunclet$??1ScintillaBase@@MAE@XZ$3 10038546 f   ScintillaBase.obj
 0001:00037554       __unwindfunclet$??0ScintillaBase@@IAE@XZ$4 10038554 f   ScintillaBase.obj
 0001:00037554       __unwindfunclet$??1ScintillaBase@@MAE@XZ$4 10038554 f   ScintillaBase.obj
 0001:00037562       __ehhandler$??1ScintillaBase@@MAE@XZ 10038562 f   ScintillaBase.obj
 0001:00037562       __ehhandler$??0ScintillaBase@@IAE@XZ 10038562 f   ScintillaBase.obj
 0001:0003757d       __unwindfunclet$?AutoCompleteCompleted@ScintillaBase@@IAEXXZ$0 1003857d f   ScintillaBase.obj
 0001:00037585       __ehhandler$?AutoCompleteCompleted@ScintillaBase@@IAEXXZ 10038585 f   ScintillaBase.obj
 0001:000375ad       __unwindfunclet$?Colourise@ScintillaBase@@IAEXHH@Z$0 100385ad f   ScintillaBase.obj
 0001:000375b8       __ehhandler$?Colourise@ScintillaBase@@IAEXHH@Z 100385b8 f   ScintillaBase.obj
 0001:000375e0       __unwindfunclet$?ImeStartComposition@ScintillaWin@@AAEXXZ$0 100385e0 f   ScintillaWin.obj
 0001:000375e8       __ehhandler$?ImeStartComposition@ScintillaWin@@AAEXXZ 100385e8 f   ScintillaWin.obj
 0001:0003760d       __unwindfunclet$?TextWidth@Editor@@IAEHHPBD@Z$0 1003860d f   ScintillaWin.obj
 0001:0003760d       __unwindfunclet$?RefreshStyleData@Editor@@IAEXXZ$0 1003860d f   ScintillaWin.obj
 0001:0003760d       __unwindfunclet$?RealizeWindowPalette@ScintillaWin@@AAEX_N@Z$0 1003860d f   ScintillaWin.obj
 0001:00037615       __ehhandler$?RefreshStyleData@Editor@@IAEXXZ 10038615 f   ScintillaWin.obj
 0001:00037615       __ehhandler$?TextWidth@Editor@@IAEHHPBD@Z 10038615 f   ScintillaWin.obj
 0001:00037615       __ehhandler$?RealizeWindowPalette@ScintillaWin@@AAEX_N@Z 10038615 f   ScintillaWin.obj
 0001:00037630       __unwindfunclet$?FullPaintDC@ScintillaWin@@AAEXPAUHDC__@@@Z$0 10038630 f   ScintillaWin.obj
 0001:00037638       __ehhandler$?FullPaintDC@ScintillaWin@@AAEXPAUHDC__@@@Z 10038638 f   ScintillaWin.obj
 0001:00037653       __unwindfunclet$?SWndProc@ScintillaWin@@CGJPAUHWND__@@IIJ@Z$0 10038653 f   ScintillaWin.obj
 0001:0003765d       __ehhandler$?SWndProc@ScintillaWin@@CGJPAUHWND__@@IIJ@Z 1003865d f   ScintillaWin.obj
 0001:00037678       __unwindfunclet$?WndPaint@ScintillaWin@@AAEJK@Z$0 10038678 f   ScintillaWin.obj
 0001:00037680       __ehhandler$?WndPaint@ScintillaWin@@AAEJK@Z 10038680 f   ScintillaWin.obj
 0001:000376a5       __unwindfunclet$??0Style@@QAE@XZ$0 100386a5 f   Style.obj
 0001:000376a5       __unwindfunclet$??1Style@@QAE@XZ$0 100386a5 f   Style.obj
 0001:000376b0       __ehhandler$??1Style@@QAE@XZ 100386b0 f   Style.obj
 0001:000376b0       __ehhandler$??0Style@@QAE@XZ 100386b0 f   Style.obj
 0001:000376cb       __unwindfunclet$??1ViewStyle@@QAE@XZ$0 100386cb f   ViewStyle.obj
 0001:000376cb       __unwindfunclet$??0ViewStyle@@QAE@XZ$0 100386cb f   ViewStyle.obj
 0001:000376d3       __unwindfunclet$??1ViewStyle@@QAE@XZ$1 100386d3 f   ViewStyle.obj
 0001:000376d3       __unwindfunclet$??0ViewStyle@@QAE@XZ$1 100386d3 f   ViewStyle.obj
 0001:000376e9       __ehhandler$??0ViewStyle@@QAE@XZ 100386e9 f   ViewStyle.obj
 0001:000376e9       __ehhandler$??1ViewStyle@@QAE@XZ 100386e9 f   ViewStyle.obj
 0001:00037704       __unwindfunclet$??0ViewStyle@@QAE@ABV0@@Z$0 10038704 f   ViewStyle.obj
 0001:0003770c       __unwindfunclet$??0ViewStyle@@QAE@ABV0@@Z$1 1003870c f   ViewStyle.obj
 0001:00037722       __ehhandler$??0ViewStyle@@QAE@ABV0@@Z 10038722 f   ViewStyle.obj
 0001:0003773d       __ehhandler$?CallUnexpected@@YAXPBU_s_ESTypeList@@@Z 1003873d f   LIBCMT:frame.obj
 0001:00037758       ??__Eminder@@YAXXZ         10038758 f   ExternalLexer.obj
 0001:00037764       ??__ElmHTML@@YAXXZ         10038764 f   LexHTML.obj
 0001:0003778f       ??__ElmXML@@YAXXZ          1003878f f   LexHTML.obj
 0001:000377ba       ??__ElmASP@@YAXXZ          100387ba f   LexHTML.obj
 0001:000377e5       ??__ElmPHP@@YAXXZ          100387e5 f   LexHTML.obj
 0001:00037810       ??__ElmPHPSCRIPT@@YAXXZ    10038810 f   LexHTML.obj
 0001:0003783b       ??__ElmMSSQL@@YAXXZ        1003883b f   LexMSSQL.obj
 0001:00037869       ??__ElmMySQL@@YAXXZ        10038869 f   LexMySQL.obj
 0001:00037897       ??__ElmSQL@@YAXXZ          10038897 f   LexSQL.obj
 0001:000378c5       ??__Fminder@@YAXXZ         100388c5 f   ExternalLexer.obj
 0001:000378cf       ??__FlmHTML@@YAXXZ         100388cf f   LexHTML.obj
 0001:000378da       ??__FlmXML@@YAXXZ          100388da f   LexHTML.obj
 0001:000378e5       ??__FlmASP@@YAXXZ          100388e5 f   LexHTML.obj
 0001:000378f0       ??__FlmPHP@@YAXXZ          100388f0 f   LexHTML.obj
 0001:000378fb       ??__FlmPHPSCRIPT@@YAXXZ    100388fb f   LexHTML.obj
 0001:00037906       ??__FlmMSSQL@@YAXXZ        10038906 f   LexMSSQL.obj
 0001:00037911       ??__FlmMySQL@@YAXXZ        10038911 f   LexMySQL.obj
 0001:0003791c       ??__FlmSQL@@YAXXZ          1003891c f   LexSQL.obj
 0001:00037927       ??__Fnomem@?5???2@YAPAXI@Z@YAXXZ 10038927 f   LIBCMT:new.obj
